(lp0
F1738388.0
aF1886904.0
aF1783236.0
aF1752089.0
aF2161062.0
aF1828655.0
aF1756925.0
aF1832052.0
aF1762811.0
aF1827005.0
a.(lp0
(i__main__
Individual
p1
(dp2
S'genome'
p3
(lp4
I252
aI69
aI165
asS'fitness'
p5
F1738388.0
sba(i__main__
Individual
p6
(dp7
g3
(lp8
I252
aI79
aI165
asg5
F1886904.0
sba(i__main__
Individual
p9
(dp10
g3
(lp11
I252
aI69
aI165
asg5
F1783236.0
sba(i__main__
Individual
p12
(dp13
g3
(lp14
I252
aI45
aI165
asg5
F1752089.0
sba(i__main__
Individual
p15
(dp16
g3
(lp17
I227
aI93
aI165
asg5
F2161062.0
sba(i__main__
Individual
p18
(dp19
g3
(lp20
I252
aI69
aI156
asg5
F1828655.0
sba(i__main__
Individual
p21
(dp22
g3
(lp23
I252
aI69
aI165
asg5
F1756925.0
sba(i__main__
Individual
p24
(dp25
g3
(lp26
I252
aI69
aI153
asg5
F1832052.0
sba(i__main__
Individual
p27
(dp28
g3
(lp29
I252
aI69
aI165
asg5
F1762811.0
sba(i__main__
Individual
p30
(dp31
g3
(lp32
I170
aI102
aI103
asg5
F1827005.0
sba.