(lp0
F71472.0
aF78627.0
aF87874.0
aF94253.0
aF78573.0
aF80319.0
aF71153.0
aF78289.0
aF75205.0
aF72354.0
aF70387.0
aF70375.0
aF69030.0
aF64251.0
aF71239.0
aF74005.0
aF69794.0
aF66391.0
aF80214.0
aF74934.0
aF86952.0
aF101803.0
aF91752.0
aF89089.0
aF68874.0
aF75322.0
aF71686.0
aF73552.0
aF88537.0
aF68006.0
aF68791.0
a.(lp0
(i__main__
Individual
p1
(dp2
S'genome'
p3
(lp4
I178
aI99
aI177
asS'fitness'
p5
F71472.0
sba(i__main__
Individual
p6
(dp7
g3
(lp8
I178
aI99
aI177
asg5
F78627.0
sba(i__main__
Individual
p9
(dp10
g3
(lp11
I178
aI99
aI177
asg5
F87874.0
sba(i__main__
Individual
p12
(dp13
g3
(lp14
I178
aI99
aI162
asg5
F94253.0
sba(i__main__
Individual
p15
(dp16
g3
(lp17
I178
aI99
aI177
asg5
F78573.0
sba(i__main__
Individual
p18
(dp19
g3
(lp20
I178
aI99
aI161
asg5
F80319.0
sba(i__main__
Individual
p21
(dp22
g3
(lp23
I178
aI99
aI177
asg5
F71153.0
sba(i__main__
Individual
p24
(dp25
g3
(lp26
I178
aI99
aI177
asg5
F78289.0
sba(i__main__
Individual
p27
(dp28
g3
(lp29
I178
aI99
aI177
asg5
F75205.0
sba(i__main__
Individual
p30
(dp31
g3
(lp32
I178
aI99
aI177
asg5
F72354.0
sba(i__main__
Individual
p33
(dp34
g3
(lp35
I178
aI99
aI177
asg5
F70387.0
sba(i__main__
Individual
p36
(dp37
g3
(lp38
I178
aI99
aI177
asg5
F70375.0
sba(i__main__
Individual
p39
(dp40
g3
(lp41
I178
aI99
aI177
asg5
F69030.0
sba(i__main__
Individual
p42
(dp43
g3
(lp44
I139
aI66
aI67
asg5
F64251.0
sba(i__main__
Individual
p45
(dp46
g3
(lp47
I178
aI99
aI177
asg5
F71239.0
sba(i__main__
Individual
p48
(dp49
g3
(lp50
I178
aI99
aI177
asg5
F74005.0
sba(i__main__
Individual
p51
(dp52
g3
(lp53
I178
aI99
aI177
asg5
F69794.0
sba(i__main__
Individual
p54
(dp55
g3
(lp56
I178
aI99
aI177
asg5
F66391.0
sba(i__main__
Individual
p57
(dp58
g3
(lp59
I178
aI99
aI177
asg5
F80214.0
sba(i__main__
Individual
p60
(dp61
g3
(lp62
I178
aI99
aI177
asg5
F74934.0
sba(i__main__
Individual
p63
(dp64
g3
(lp65
I178
aI99
aI177
asg5
F86952.0
sba(i__main__
Individual
p66
(dp67
g3
(lp68
I195
aI99
aI177
asg5
F101803.0
sba(i__main__
Individual
p69
(dp70
g3
(lp71
I178
aI99
aI177
asg5
F91752.0
sba(i__main__
Individual
p72
(dp73
g3
(lp74
I178
aI99
aI177
asg5
F89089.0
sba(i__main__
Individual
p75
(dp76
g3
(lp77
I178
aI99
aI177
asg5
F68874.0
sba(i__main__
Individual
p78
(dp79
g3
(lp80
I178
aI99
aI177
asg5
F75322.0
sba(i__main__
Individual
p81
(dp82
g3
(lp83
I178
aI99
aI177
asg5
F71686.0
sba(i__main__
Individual
p84
(dp85
g3
(lp86
I178
aI99
aI177
asg5
F73552.0
sba(i__main__
Individual
p87
(dp88
g3
(lp89
I178
aI99
aI177
asg5
F88537.0
sba(i__main__
Individual
p90
(dp91
g3
(lp92
I178
aI99
aI177
asg5
F68006.0
sba(i__main__
Individual
p93
(dp94
g3
(lp95
I178
aI99
aI177
asg5
F68791.0
sba.