(lp0
F306330.0
aF307465.0
aF305199.0
aF305553.0
aF304667.0
aF305458.0
aF300474.0
aF303466.0
aF304959.0
a.(lp0
(i__main__
Individual
p1
(dp2
S'genome'
p3
(lp4
I187
aI49
aI111
aI168
aI108
aI210
aI69
aI250
aI129
aI7
aI104
aI59
aI140
aI129
aI125
asS'fitness'
p5
F306330.0
sba(i__main__
Individual
p6
(dp7
g3
(lp8
I187
aI49
aI111
aI168
aI108
aI210
aI5
aI250
aI129
aI7
aI104
aI99
aI140
aI129
aI125
asg5
F307465.0
sba(i__main__
Individual
p9
(dp10
g3
(lp11
I187
aI49
aI111
aI168
aI108
aI210
aI69
aI250
aI129
aI7
aI104
aI59
aI140
aI129
aI125
asg5
F305199.0
sba(i__main__
Individual
p12
(dp13
g3
(lp14
I187
aI49
aI111
aI168
aI108
aI200
aI69
aI250
aI129
aI7
aI104
aI59
aI140
aI129
aI125
asg5
F305553.0
sba(i__main__
Individual
p15
(dp16
g3
(lp17
I187
aI49
aI111
aI168
aI108
aI210
aI69
aI250
aI129
aI7
aI104
aI59
aI140
aI129
aI125
asg5
F304667.0
sba(i__main__
Individual
p18
(dp19
g3
(lp20
I120
aI137
aI242
aI240
aI126
aI139
aI110
aI87
aI101
aI198
aI245
aI105
aI217
aI28
aI120
asg5
F305458.0
sba(i__main__
Individual
p21
(dp22
g3
(lp23
I187
aI49
aI111
aI168
aI108
aI210
aI69
aI250
aI129
aI7
aI104
aI59
aI140
aI129
aI125
asg5
F300474.0
sba(i__main__
Individual
p24
(dp25
g3
(lp26
I187
aI49
aI111
aI168
aI108
aI210
aI69
aI250
aI129
aI7
aI104
aI59
aI140
aI129
aI125
asg5
F303466.0
sba(i__main__
Individual
p27
(dp28
g3
(lp29
I255
aI49
aI111
aI168
aI108
aI210
aI73
aI250
aI129
aI7
aI104
aI59
aI140
aI129
aI125
asg5
F304959.0
sba.