(lp0
(lp1
F313306.0
aF312184.0
aF312931.0
aF312592.0
aF312555.0
aF312869.0
aF312305.0
aF312071.0
aF313162.0
aF313325.0
aF313283.0
aF313492.0
aF312481.0
aF312549.0
aF312591.0
aF312112.0
aa(lp2
F312453.0
aF313309.0
aF312415.0
aF312768.0
aF313414.0
aF313488.0
aF313761.0
aF313467.0
aF312644.0
aF314487.0
aF314023.0
aF312626.0
aF312495.0
aF313904.0
aF313219.0
aF312920.0
aa.(lp0
cnumpy.core.multiarray
scalar
p1
(cnumpy
dtype
p2
(S'f8'
p3
I0
I1
tp4
Rp5
(I3
S'<'
p6
NNNI-1
I-1
I0
tp7
bS'\x00\x00\x00\x00\x1c\x0c\x13A'
p8
tp9
Rp10
ag1
(g5
S'\x00\x00\x00\x00|\x11\x13A'
p11
tp12
Rp13
a.(lp0
cnumpy.core.multiarray
scalar
p1
(cnumpy
dtype
p2
(S'f8'
p3
I0
I1
tp4
Rp5
(I3
S'<'
p6
NNNI-1
I-1
I0
tp7
bS'\x00\x00\x00\x00\xd4\x11\x13A'
p8
tp9
Rp10
ag1
(g5
S'\x00\x00\x00\x00\xfe\x14\x13A'
p11
tp12
Rp13
a.(lp0
cnumpy.core.multiarray
scalar
p1
(cnumpy
dtype
p2
(S'f8'
p3
I0
I1
tp4
Rp5
(I3
S'<'
p6
NNNI-1
I-1
I0
tp7
bS'\x00\x00\x00\x00>\x14\x13A'
p8
tp9
Rp10
ag1
(g5
S'\x00\x00\x00\x00\xc0\x1e\x13A'
p11
tp12
Rp13
a.(lp0
cnumpy.core.multiarray
scalar
p1
(cnumpy
dtype
p2
(S'f8'
p3
I0
I1
tp4
Rp5
(I3
S'<'
p6
NNNI-1
I-1
I0
tp7
bS'\x00\x00\x00\x00\xa1\x1d\x13A'
p8
tp9
Rp10
ag1
(g5
S'\x00\x00\x00\x00Q#\x13A'
p11
tp12
Rp13
a.(lp0
cnumpy.core.multiarray
scalar
p1
(cnumpy
dtype
p2
(S'f8'
p3
I0
I1
tp4
Rp5
(I3
S'<'
p6
NNNI-1
I-1
I0
tp7
bS'\x00\x00\x00\x00P"\x13A'
p8
tp9
Rp10
ag1
(g5
S'\x00\x00\x00\x00\xdc1\x13A'
p11
tp12
Rp13
a.(lp0
cnumpy.core.multiarray
scalar
p1
(cnumpy
dtype
p2
(S'f8'
p3
I0
I1
tp4
Rp5
(I3
S'<'
p6
NNNI-1
I-1
I0
tp7
bS'a\xd9\x1f81H|@'
p8
tp9
Rp10
ag1
(g5
S'\xb5\xd2c\xfc\xda\x05\x83@'
p11
tp12
Rp13
a.(lp0
cnumpy.core.multiarray
scalar
p1
(cnumpy
dtype
p2
(S'f8'
p3
I0
I1
tp4
Rp5
(I3
S'<'
p6
NNNI-1
I-1
I0
tp7
bS'\x00\x00\x00\x00\x88\x16\x13A'
p8
tp9
Rp10
ag1
(g5
S'\x00\x00\x00@\xf0\x1d\x13A'
p11
tp12
Rp13
a.(lp0
I0
aI1
a.