(lp0
F77038.0
aF97119.0
aF94179.0
aF98346.0
aF68938.0
aF102345.0
aF81480.0
aF88339.0
aF90928.0
aF90929.0
aF74030.0
aF70474.0
aF86812.0
aF76001.0
a.(lp0
(i__main__
Individual
p1
(dp2
S'genome'
p3
(lp4
I207
aI28
aI166
asS'fitness'
p5
F77038.0
sba(i__main__
Individual
p6
(dp7
g3
(lp8
I240
aI28
aI166
asg5
F97119.0
sba(i__main__
Individual
p9
(dp10
g3
(lp11
I207
aI28
aI166
asg5
F94179.0
sba(i__main__
Individual
p12
(dp13
g3
(lp14
I238
aI28
aI166
asg5
F98346.0
sba(i__main__
Individual
p15
(dp16
g3
(lp17
I134
aI92
aI125
asg5
F68938.0
sba(i__main__
Individual
p18
(dp19
g3
(lp20
I255
aI28
aI166
asg5
F102345.0
sba(i__main__
Individual
p21
(dp22
g3
(lp23
I207
aI28
aI166
asg5
F81480.0
sba(i__main__
Individual
p24
(dp25
g3
(lp26
I207
aI28
aI166
asg5
F88339.0
sba(i__main__
Individual
p27
(dp28
g3
(lp29
I207
aI28
aI166
asg5
F90928.0
sba(i__main__
Individual
p30
(dp31
g3
(lp32
I207
aI28
aI156
asg5
F90929.0
sba(i__main__
Individual
p33
(dp34
g3
(lp35
I207
aI28
aI166
asg5
F74030.0
sba(i__main__
Individual
p36
(dp37
g3
(lp38
I134
aI92
aI125
asg5
F70474.0
sba(i__main__
Individual
p39
(dp40
g3
(lp41
I207
aI28
aI166
asg5
F86812.0
sba(i__main__
Individual
p42
(dp43
g3
(lp44
I207
aI28
aI166
asg5
F76001.0
sba.