(lp0
(lp1
F1449074.0
aF1479354.0
aF1465494.0
aF1465584.0
aF1463920.0
aF1474416.0
aF1456219.0
aF1475674.0
aF1481919.0
aF1463737.0
aa(lp2
F1480660.0
aF1465135.0
aF1460013.0
aF1464246.0
aF1458843.0
aF1460247.0
aF1464913.0
aF1460857.0
aF1463663.0
aF1464190.0
aa(lp3
F1463788.0
aF1459704.0
aF1460369.0
aF1463973.0
aF1463155.0
aF1460200.0
aF1463600.0
aF1462621.0
aF1458320.0
aF1463850.0
aa(lp4
F1463723.0
aF1464113.0
aF1457732.0
aF1462884.0
aF1464065.0
aF1463038.0
aF1463875.0
aF1463108.0
aF1459672.0
aF1463285.0
aa.(lp0
cnumpy.core.multiarray
scalar
p1
(cnumpy
dtype
p2
(S'f8'
p3
I0
I1
tp4
Rp5
(I3
S'<'
p6
NNNI-1
I-1
I0
tp7
bS'\x00\x00\x00\x00r\x1c6A'
p8
tp9
Rp10
ag1
(g5
S'\x00\x00\x00\x00\x9bB6A'
p11
tp12
Rp13
ag1
(g5
S'\x00\x00\x00\x00\x90@6A'
p14
tp15
Rp16
ag1
(g5
S'\x00\x00\x00\x00D>6A'
p17
tp18
Rp19
a.(lp0
cnumpy.core.multiarray
scalar
p1
(cnumpy
dtype
p2
(S'f8'
p3
I0
I1
tp4
Rp5
(I3
S'<'
p6
NNNI-1
I-1
I0
tp7
bS'\x00\x00\x00\xc0\xe6U6A'
p8
tp9
Rp10
ag1
(g5
S'\x00\x00\x00\x80\xafH6A'
p11
tp12
Rp13
ag1
(g5
S'\x00\x00\x00@\x12H6A'
p14
tp15
Rp16
ag1
(g5
S'\x00\x00\x00\x80\x8aR6A'
p17
tp18
Rp19
a.(lp0
cnumpy.core.multiarray
scalar
p1
(cnumpy
dtype
p2
(S'f8'
p3
I0
I1
tp4
Rp5
(I3
S'<'
p6
NNNI-1
I-1
I0
tp7
bS'\x00\x00\x00\x00\xc3\\6A'
p8
tp9
Rp10
ag1
(g5
S'\x00\x00\x00\x80vV6A'
p11
tp12
Rp13
ag1
(g5
S'\x00\x00\x00\x00hR6A'
p14
tp15
Rp16
ag1
(g5
S'\x00\x00\x00\x80\x9cS6A'
p17
tp18
Rp19
a.(lp0
cnumpy.core.multiarray
scalar
p1
(cnumpy
dtype
p2
(S'f8'
p3
I0
I1
tp4
Rp5
(I3
S'<'
p6
NNNI-1
I-1
I0
tp7
bS'\x00\x00\x00\x80\x1f\x836A'
p8
tp9
Rp10
ag1
(g5
S'\x00\x00\x00@\xaaY6A'
p11
tp12
Rp13
ag1
(g5
S'\x00\x00\x00\x00\xbdU6A'
p14
tp15
Rp16
ag1
(g5
S'\x00\x00\x00\x00\x1dV6A'
p17
tp18
Rp19
a.(lp0
cnumpy.core.multiarray
scalar
p1
(cnumpy
dtype
p2
(S'f8'
p3
I0
I1
tp4
Rp5
(I3
S'<'
p6
NNNI-1
I-1
I0
tp7
bS'\x00\x00\x00\x00\xbf\x9c6A'
p8
tp9
Rp10
ag1
(g5
S'\x00\x00\x00\x00\xd4\x976A'
p11
tp12
Rp13
ag1
(g5
S'\x00\x00\x00\x00\xa5V6A'
p14
tp15
Rp16
ag1
(g5
S'\x00\x00\x00\x001W6A'
p17
tp18
Rp19
a.(lp0
cnumpy.core.multiarray
scalar
p1
(cnumpy
dtype
p2
(S'f8'
p3
I0
I1
tp4
Rp5
(I3
S'<'
p6
NNNI-1
I-1
I0
tp7
bS'k\xe8Y\xf8u.\xc3@'
p8
tp9
Rp10
ag1
(g5
S'1e\xcc\xbb\x92\xf6\xb6@'
p11
tp12
Rp13
ag1
(g5
S'\x08\xca-F\xac\x0c\x9f@'
p14
tp15
Rp16
ag1
(g5
S'@\x92\x184\x81x\x9f@'
p17
tp18
Rp19
a.(lp0
cnumpy.core.multiarray
scalar
p1
(cnumpy
dtype
p2
(S'f8'
p3
I0
I1
tp4
Rp5
(I3
S'<'
p6
NNNI-1
I-1
I0
tp7
bS'\x9a\x99\x99\x19\x93d6A'
p8
tp9
Rp10
ag1
(g5
S'333\xb3\xd4W6A'
p11
tp12
Rp13
ag1
(g5
S'\x00\x00\x00\x00\xc6N6A'
p14
tp15
Rp16
ag1
(g5
S'\x00\x00\x00\x80\x15Q6A'
p17
tp18
Rp19
a.(lp0
I0
aI1
aI2
aI3
a.