(lp0
F1478055.0
aF1477830.0
aF1460467.0
aF1445732.0
aF1504768.5
aF1476528.5
aF1475937.0
aF1476608.0
aF1462436.0
a.(lp0
(i__main__
Individual
p1
(dp2
S'genome'
p3
(lp4
I27
aI111
aI6
asS'fitness'
p5
F1478055.0
sba(i__main__
Individual
p6
(dp7
g3
(lp8
I27
aI111
aI6
asg5
F1477830.0
sba(i__main__
Individual
p9
(dp10
g3
(lp11
I27
aI111
aI6
asg5
F1460467.0
sba(i__main__
Individual
p12
(dp13
g3
(lp14
I27
aI111
aI6
asg5
F1445732.0
sba(i__main__
Individual
p15
(dp16
g3
(lp17
I162
aI131
aI140
asg5
F1504768.5
sba(i__main__
Individual
p18
(dp19
g3
(lp20
I106
aI85
aI110
asg5
F1476528.5
sba(i__main__
Individual
p21
(dp22
g3
(lp23
I120
aI85
aI0
asg5
F1475937.0
sba(i__main__
Individual
p24
(dp25
g3
(lp26
I27
aI111
aI6
asg5
F1476608.0
sba(i__main__
Individual
p27
(dp28
g3
(lp29
I88
aI18
aI151
asg5
F1462436.0
sba.