(lp0
F1533216.0
aF1527864.0
aF1529387.0
a.(lp0
(i__main__
Individual
p1
(dp2
S'genome'
p3
(lp4
I59
aI60
aI180
asS'fitness'
p5
F1533216.0
sba(i__main__
Individual
p6
(dp7
g3
(lp8
I59
aI60
aI189
asg5
F1527864.0
sba(i__main__
Individual
p9
(dp10
g3
(lp11
I59
aI60
aI157
asg5
F1529387.0
sba.