(lp0
(lp1
F1459091.0
aF1457015.0
aF1457264.0
aF1447549.0
aF1437545.0
aF1442924.0
aF1487199.0
aF1529514.0
aF1526600.0
aF1527915.0
aa(lp2
F1527623.0
aF1539914.0
aF1518763.0
aF1518865.0
aF1526961.0
aF1535540.0
aF1518681.0
aF1527743.0
aF1531791.0
aF1528440.0
aa(lp3
F1533393.0
aF1528338.0
aF1533065.0
aF1519390.0
aF1527905.0
aF1531706.0
aF1520017.0
aF1527651.0
aF1532511.0
aF1520510.0
aa(lp4
F1525316.0
aF1518554.0
aF1519117.0
aF1519249.0
aF1519268.0
aF1519349.0
aF1519474.0
aF1519621.0
aF1556058.0
aF1523908.0
aa(lp5
F1532473.0
aF1526208.0
aF1528690.0
aF1516628.0
aF1517926.0
aF1522959.0
aF1527345.0
aF1516808.0
aF1517772.0
aF1511109.0
aa(lp6
F1519812.0
aF1512076.0
aF1503243.0
aF1521916.0
aF1520259.0
aF1521061.0
aF1521017.0
aF1521429.0
aF1520727.0
aF1521361.0
aa(lp7
F1522054.0
aF1520523.0
aF1519303.0
aF1521194.0
aF1520589.0
aF1520319.0
aF1521303.0
aF1520017.0
aF1519887.0
aF1529558.0
aa(lp8
F1531808.0
aF1527969.0
aF1528409.0
aF1526256.0
aF1519558.0
aF1525320.0
aF1529286.0
aF1515156.0
aF1519182.0
aF1519395.0
aa(lp9
F1521016.0
aF1528470.0
aF1520135.0
aF1522332.0
aF1528139.0
aF1524227.0
aF1525611.0
aF1592650.0
aF1518355.0
aF1518508.0
aa(lp10
F1518676.0
aF1527375.0
aF1527188.0
aF1517637.0
aF1524602.0
aF1516159.0
aF1482696.0
aF1519956.0
aF1519971.0
aF1519510.0
aa.(lp0
cnumpy.core.multiarray
scalar
p1
(cnumpy
dtype
p2
(S'f8'
p3
I0
I1
tp4
Rp5
(I3
S'<'
p6
NNNI-1
I-1
I0
tp7
bS'\x00\x00\x00\x00i\xef5A'
p8
tp9
Rp10
ag1
(g5
S'\x00\x00\x00\x00Y,7A'
p11
tp12
Rp13
ag1
(g5
S'\x00\x00\x00\x00\x1e/7A'
p14
tp15
Rp16
ag1
(g5
S'\x00\x00\x00\x00\xda+7A'
p17
tp18
Rp19
ag1
(g5
S'\x00\x00\x00\x00\xc5\x0e7A'
p20
tp21
Rp22
ag1
(g5
S'\x00\x00\x00\x00\x0b\xf06A'
p23
tp24
Rp25
ag1
(g5
S'\x00\x00\x00\x00\xc7.7A'
p26
tp27
Rp28
ag1
(g5
S'\x00\x00\x00\x00\x94\x1e7A'
p29
tp30
Rp31
ag1
(g5
S'\x00\x00\x00\x00\x13+7A'
p32
tp33
Rp34
ag1
(g5
S'\x00\x00\x00\x00\xc8\x9f6A'
p35
tp36
Rp37
a.(lp0
cnumpy.core.multiarray
scalar
p1
(cnumpy
dtype
p2
(S'f8'
p3
I0
I1
tp4
Rp5
(I3
S'<'
p6
NNNI-1
I-1
I0
tp7
bS'\x00\x00\x00\x80\xbb\x1f6A'
p8
tp9
Rp10
ag1
(g5
S'\x00\x00\x00\x00\xf947A'
p11
tp12
Rp13
ag1
(g5
S'\x00\x00\x00@w:7A'
p14
tp15
Rp16
ag1
(g5
S'\x00\x00\x00\xc0\x95.7A'
p17
tp18
Rp19
ag1
(g5
S'\x00\x00\x00\x00\xf9%7A'
p20
tp21
Rp22
ag1
(g5
S'\x00\x00\x00\xc0317A'
p23
tp24
Rp25
ag1
(g5
S'\x00\x00\x00\x80\xdc17A'
p26
tp27
Rp28
ag1
(g5
S'\x00\x00\x00\xc0K/7A'
p29
tp30
Rp31
ag1
(g5
S'\x00\x00\x00@\xe327A'
p32
tp33
Rp34
ag1
(g5
S'\x00\x00\x00\xc0H)7A'
p35
tp36
Rp37
a.(lp0
cnumpy.core.multiarray
scalar
p1
(cnumpy
dtype
p2
(S'f8'
p3
I0
I1
tp4
Rp5
(I3
S'<'
p6
NNNI-1
I-1
I0
tp7
bS'\x00\x00\x00\x80\x01@6A'
p8
tp9
Rp10
ag1
(g5
S'\x00\x00\x00\x00\x83O7A'
p11
tp12
Rp13
ag1
(g5
S'\x00\x00\x00\x809Q7A'
p14
tp15
Rp16
ag1
(g5
S'\x00\x00\x00\x803/7A'
p17
tp18
Rp19
ag1
(g5
S'\x00\x00\x00\x80:37A'
p20
tp21
Rp22
ag1
(g5
S'\x00\x00\x00\x00\xe847A'
p23
tp24
Rp25
ag1
(g5
S'\x00\x00\x00\x00\xac37A'
p26
tp27
Rp28
ag1
(g5
S'\x00\x00\x00\x00\x1cH7A'
p29
tp30
Rp31
ag1
(g5
S'\x00\x00\x00\x80O>7A'
p32
tp33
Rp34
ag1
(g5
S'\x00\x00\x00\x00u07A'
p35
tp36
Rp37
a.(lp0
cnumpy.core.multiarray
scalar
p1
(cnumpy
dtype
p2
(S'f8'
p3
I0
I1
tp4
Rp5
(I3
S'<'
p6
NNNI-1
I-1
I0
tp7
bS'\x00\x00\x00\xc0\xcd$7A'
p8
tp9
Rp10
ag1
(g5
S'\x00\x00\x00@I\\7A'
p11
tp12
Rp13
ag1
(g5
S'\x00\x00\x00\xc0\x95a7A'
p14
tp15
Rp16
ag1
(g5
S'\x00\x00\x00@\x94<7A'
p17
tp18
Rp19
ag1
(g5
S'\x00\x00\x00\xc0\x14M7A'
p20
tp21
Rp22
ag1
(g5
S'\x00\x00\x00\x00\x8667A'
p23
tp24
Rp25
ag1
(g5
S'\x00\x00\x00\xc0{67A'
p26
tp27
Rp28
ag1
(g5
S'\x00\x00\x00\x00\xebQ7A'
p29
tp30
Rp31
ag1
(g5
S'\x00\x00\x00\x00\xd3N7A'
p32
tp33
Rp34
ag1
(g5
S'\x00\x00\x00@\xf4>7A'
p35
tp36
Rp37
a.(lp0
cnumpy.core.multiarray
scalar
p1
(cnumpy
dtype
p2
(S'f8'
p3
I0
I1
tp4
Rp5
(I3
S'<'
p6
NNNI-1
I-1
I0
tp7
bS'\x00\x00\x00\x00\xaaV7A'
p8
tp9
Rp10
ag1
(g5
S'\x00\x00\x00\x00J\x7f7A'
p11
tp12
Rp13
ag1
(g5
S'\x00\x00\x00\x00\xd1e7A'
p14
tp15
Rp16
ag1
(g5
S'\x00\x00\x00\x00Z\xbe7A'
p17
tp18
Rp19
ag1
(g5
S'\x00\x00\x00\x009b7A'
p20
tp21
Rp22
ag1
(g5
S'\x00\x00\x00\x00\xfc87A'
p23
tp24
Rp25
ag1
(g5
S'\x00\x00\x00\x00\xd6V7A'
p26
tp27
Rp28
ag1
(g5
S'\x00\x00\x00\x00\xa0_7A'
p29
tp30
Rp31
ag1
(g5
S'\x00\x00\x00\x00JM8A'
p32
tp33
Rp34
ag1
(g5
S'\x00\x00\x00\x00ON7A'
p35
tp36
Rp37
a.(lp0
cnumpy.core.multiarray
scalar
p1
(cnumpy
dtype
p2
(S'f8'
p3
I0
I1
tp4
Rp5
(I3
S'<'
p6
NNNI-1
I-1
I0
tp7
bS'(!\xc8\x1a\x8bV\xe1@'
p8
tp9
Rp10
ag1
(g5
S'\x8b\x1b[\xbf\x02\xb2\xba@'
p11
tp12
Rp13
ag1
(g5
S'\xe0\x9c\xc9\x1eb\xab\xb4@'
p14
tp15
Rp16
ag1
(g5
S'\x9d\xb3\xfd\xa3\x8dL\xc5@'
p17
tp18
Rp19
ag1
(g5
S'0\xe7*\x85\xf1\x03\xb9@'
p20
tp21
Rp22
ag1
(g5
S'\x96\xda\x9erKB\xb6@'
p23
tp24
Rp25
ag1
(g5
S'\xa6\xa2\xb1o\xd4\xd7\xa5@'
p26
tp27
Rp28
ag1
(g5
S'\xa2\xc99\x8f\x8df\xb4@'
p29
tp30
Rp31
ag1
(g5
S'd\xf2\xc1\x99(\xb0\xd4@'
p32
tp33
Rp34
ag1
(g5
S'\xc3\x01\x18\xe2\x08\xb3\xc7@'
p35
tp36
Rp37
a.(lp0
cnumpy.core.multiarray
scalar
p1
(cnumpy
dtype
p2
(S'f8'
p3
I0
I1
tp4
Rp5
(I3
S'<'
p6
NNNI-1
I-1
I0
tp7
bS'\x9a\x99\x99\x99\x8d\x8a6A'
p8
tp9
Rp10
ag1
(g5
S'\x9a\x99\x99\x19\x88N7A'
p11
tp12
Rp13
ag1
(g5
S'\x9a\x99\x99\x99\x98N7A'
p14
tp15
Rp16
ag1
(g5
S'ffff\x17A7A'
p17
tp18
Rp19
ag1
(g5
S'\xcd\xcc\xcc\xcc\x7f87A'
p20
tp21
Rp22
ag1
(g5
S'\x9a\x99\x99\x19\xd2*7A'
p23
tp24
Rp25
ag1
(g5
S'333\xb3B77A'
p26
tp27
Rp28
ag1
(g5
S'fff\xe6\tB7A'
p29
tp30
Rp31
ag1
(g5
S'\xcd\xcc\xccLXX7A'
p32
tp33
Rp34
ag1
(g5
S"\x00\x00\x00\x00A'7A"
p35
tp36
Rp37
a.(lp0
I0
aI1
aI2
aI3
aI4
aI5
aI6
aI7
aI8
aI9
a.