(lp0
(lp1
F1527206.0
aF1526454.0
aF1526609.0
aF1541230.0
aF1535936.0
aF1505552.0
aF1507012.0
aF1509841.0
aF1500768.0
aF1508280.0
aa(lp2
F1541949.0
aF1530920.0
aF1545395.0
aF1532249.0
aF1548615.0
aF1541452.0
aF1557590.0
aF1523630.0
aF1478446.0
aF1478368.0
aa(lp3
F1456419.0
aF1480382.0
aF1481331.0
aF1481815.0
aF1473026.0
aF1473873.0
aF1488336.0
aF1480511.0
aF1478120.0
aF1477092.0
aa(lp4
F1482587.0
aF1541206.0
aF1490781.0
aF1479634.0
aF1450522.0
aF1466537.0
aF1488336.0
aF2668532.0
aF1493095.0
aF1512854.0
aa.(lp0
cnumpy.core.multiarray
scalar
p1
(cnumpy
dtype
p2
(S'f8'
p3
I0
I1
tp4
Rp5
(I3
S'<'
p6
NNNI-1
I-1
I0
tp7
bS'\x00\x00\x00\x00`\xe66A'
p8
tp9
Rp10
ag1
(g5
S'\x00\x00\x00\x00\xe0\x8e6A'
p11
tp12
Rp13
ag1
(g5
S'\x00\x00\x00\x00#96A'
p14
tp15
Rp16
ag1
(g5
S'\x00\x00\x00\x00\x1a"6A'
p17
tp18
Rp19
a.(lp0
cnumpy.core.multiarray
scalar
p1
(cnumpy
dtype
p2
(S'f8'
p3
I0
I1
tp4
Rp5
(I3
S'<'
p6
NNNI-1
I-1
I0
tp7
bS'\x00\x00\x00\x00\x01\x007A'
p8
tp9
Rp10
ag1
(g5
S'\x00\x00\x00\x80\xccF7A'
p11
tp12
Rp13
ag1
(g5
S'\x00\x00\x00\xc0u\x806A'
p14
tp15
Rp16
ag1
(g5
S'\x00\x00\x00@\xb4\x966A'
p17
tp18
Rp19
a.(lp0
cnumpy.core.multiarray
scalar
p1
(cnumpy
dtype
p2
(S'f8'
p3
I0
I1
tp4
Rp5
(I3
S'<'
p6
NNNI-1
I-1
I0
tp7
bS'\x00\x00\x00\x80C*7A'
p8
tp9
Rp10
ag1
(g5
S'\x00\x00\x00\x80Rs7A'
p11
tp12
Rp13
ag1
(g5
S'\x00\x00\x00\x00S\x926A'
p14
tp15
Rp16
ag1
(g5
S'\x00\x00\x00\x80\x96\xba6A'
p17
tp18
Rp19
a.(lp0
cnumpy.core.multiarray
scalar
p1
(cnumpy
dtype
p2
(S'f8'
p3
I0
I1
tp4
Rp5
(I3
S'<'
p6
NNNI-1
I-1
I0
tp7
bS'\x00\x00\x00\xc0\x10M7A'
p8
tp9
Rp10
ag1
(g5
S'\x00\x00\x00\x80U\x917A'
p11
tp12
Rp13
ag1
(g5
S'\x00\x00\x00\x00\xa6\x996A'
p14
tp15
Rp16
ag1
(g5
S'\x00\x00\x00@J\x027A'
p17
tp18
Rp19
a.(lp0
cnumpy.core.multiarray
scalar
p1
(cnumpy
dtype
p2
(S'f8'
p3
I0
I1
tp4
Rp5
(I3
S'<'
p6
NNNI-1
I-1
I0
tp7
bS'\x00\x00\x00\x00n\x847A'
p8
tp9
Rp10
ag1
(g5
S'\x00\x00\x00\x00V\xc47A'
p11
tp12
Rp13
ag1
(g5
S'\x00\x00\x00\x00\xd0\xb56A'
p14
tp15
Rp16
ag1
(g5
S'\x00\x00\x00\x00\xfa[DA'
p17
tp18
Rp19
a.(lp0
cnumpy.core.multiarray
scalar
p1
(cnumpy
dtype
p2
(S'f8'
p3
I0
I1
tp4
Rp5
(I3
S'<'
p6
NNNI-1
I-1
I0
tp7
bS'Uf\xcc\xe6\xa2T\xca@'
p8
tp9
Rp10
ag1
(g5
S'\x9d\xc4\xfb\xban\xbb\xd9@'
p11
tp12
Rp13
ag1
(g5
S'\xefI0\xd8T\\\xbf@'
p14
tp15
Rp16
ag1
(g5
S'U\xbe\xd0\x86\xa8\xa2\x15A'
p17
tp18
Rp19
a.(lp0
cnumpy.core.multiarray
scalar
p1
(cnumpy
dtype
p2
(S'f8'
p3
I0
I1
tp4
Rp5
(I3
S'<'
p6
NNNI-1
I-1
I0
tp7
bS'\xcd\xcc\xcc\xcc(-7A'
p8
tp9
Rp10
ag1
(g5
S'ffff5P7A'
p11
tp12
Rp13
ag1
(g5
S'\x00\x00\x00\x80\xe2\x896A'
p14
tp15
Rp16
ag1
(g5
S'ffff\xf0\x868A'
p17
tp18
Rp19
a.(lp0
I0
aI1
aI2
aI3
a.