(lp0
F116170.0
aF118408.0
aF116147.0
aF116866.0
aF117583.0
aF116682.0
aF116522.0
a.(lp0
(i__main__
Individual
p1
(dp2
S'genome'
p3
(lp4
I211
aI56
aI118
asS'fitness'
p5
F116170.0
sba(i__main__
Individual
p6
(dp7
g3
(lp8
I255
aI56
aI118
asg5
F118408.0
sba(i__main__
Individual
p9
(dp10
g3
(lp11
I211
aI56
aI118
asg5
F116147.0
sba(i__main__
Individual
p12
(dp13
g3
(lp14
I211
aI56
aI118
asg5
F116866.0
sba(i__main__
Individual
p15
(dp16
g3
(lp17
I233
aI56
aI118
asg5
F117583.0
sba(i__main__
Individual
p18
(dp19
g3
(lp20
I211
aI56
aI118
asg5
F116682.0
sba(i__main__
Individual
p21
(dp22
g3
(lp23
I211
aI56
aI118
asg5
F116522.0
sba.