(lp0
F329875.0
aF327693.0
aF325572.0
aF327172.0
aF323648.0
aF321556.0
aF322726.0
aF322659.0
aF322331.0
aF323621.0
aF323646.0
aF323858.0
aF322410.0
aF325148.0
aF322837.0
aF323061.0
aF461956.0
a.(lp0
(i__main__
Individual
p1
(dp2
S'genome'
p3
(lp4
I155
aI148
aI138
aI225
aI71
aI114
aI117
aI146
aI62
aI97
aI116
aI109
aI186
aI121
aI179
asS'fitness'
p5
F329875.0
sba(i__main__
Individual
p6
(dp7
g3
(lp8
I155
aI146
aI138
aI255
aI71
aI114
aI117
aI146
aI62
aI97
aI116
aI109
aI186
aI121
aI179
asg5
F327693.0
sba(i__main__
Individual
p9
(dp10
g3
(lp11
I155
aI148
aI138
aI225
aI71
aI114
aI117
aI146
aI62
aI97
aI116
aI109
aI186
aI121
aI179
asg5
F325572.0
sba(i__main__
Individual
p12
(dp13
g3
(lp14
I155
aI148
aI138
aI225
aI71
aI114
aI117
aI146
aI62
aI97
aI116
aI109
aI186
aI121
aI179
asg5
F327172.0
sba(i__main__
Individual
p15
(dp16
g3
(lp17
I155
aI148
aI138
aI225
aI71
aI114
aI117
aI146
aI83
aI97
aI116
aI109
aI231
aI121
aI179
asg5
F323648.0
sba(i__main__
Individual
p18
(dp19
g3
(lp20
I155
aI148
aI138
aI225
aI71
aI114
aI117
aI138
aI62
aI97
aI116
aI109
aI186
aI121
aI179
asg5
F321556.0
sba(i__main__
Individual
p21
(dp22
g3
(lp23
I155
aI148
aI138
aI225
aI71
aI114
aI117
aI146
aI62
aI97
aI116
aI109
aI186
aI121
aI179
asg5
F322726.0
sba(i__main__
Individual
p24
(dp25
g3
(lp26
I202
aI91
aI135
aI221
aI117
aI34
aI54
aI112
aI172
aI201
aI36
aI14
aI71
aI53
aI163
asg5
F322659.0
sba(i__main__
Individual
p27
(dp28
g3
(lp29
I155
aI148
aI138
aI225
aI71
aI114
aI117
aI146
aI62
aI97
aI116
aI109
aI186
aI121
aI179
asg5
F322331.0
sba(i__main__
Individual
p30
(dp31
g3
(lp32
I155
aI148
aI138
aI225
aI71
aI114
aI117
aI146
aI62
aI22
aI116
aI109
aI255
aI121
aI179
asg5
F323621.0
sba(i__main__
Individual
p33
(dp34
g3
(lp35
I155
aI148
aI138
aI225
aI71
aI114
aI117
aI146
aI62
aI97
aI116
aI109
aI186
aI121
aI179
asg5
F323646.0
sba(i__main__
Individual
p36
(dp37
g3
(lp38
I155
aI148
aI138
aI222
aI71
aI114
aI117
aI146
aI62
aI97
aI116
aI109
aI186
aI87
aI179
asg5
F323858.0
sba(i__main__
Individual
p39
(dp40
g3
(lp41
I155
aI148
aI138
aI225
aI71
aI114
aI117
aI146
aI62
aI97
aI116
aI109
aI186
aI121
aI179
asg5
F322410.0
sba(i__main__
Individual
p42
(dp43
g3
(lp44
I155
aI148
aI138
aI225
aI71
aI114
aI117
aI146
aI62
aI97
aI116
aI109
aI229
aI121
aI179
asg5
F325148.0
sba(i__main__
Individual
p45
(dp46
g3
(lp47
I155
aI148
aI138
aI225
aI71
aI114
aI219
aI146
aI62
aI36
aI0
aI109
aI186
aI121
aI179
asg5
F322837.0
sba(i__main__
Individual
p48
(dp49
g3
(lp50
I155
aI148
aI138
aI225
aI71
aI114
aI117
aI146
aI62
aI97
aI116
aI86
aI255
aI121
aI179
asg5
F323061.0
sba(i__main__
Individual
p51
(dp52
g3
(lp53
I202
aI112
aI124
aI221
aI114
aI34
aI54
aI123
aI162
aI201
aI36
aI14
aI71
aI53
aI163
asg5
F461956.0
sba.