(lp0
F1481919.0
aF1480660.0
aF1463973.0
aF1464113.0
a.(lp0
(i__main__
Individual
p1
(dp2
S'genome'
p3
(lp4
I2
aI209
aI18
asS'fitness'
p5
F1481919.0
sba(i__main__
Individual
p6
(dp7
g3
(lp8
I2
aI209
aI18
asg5
F1480660.0
sba(i__main__
Individual
p9
(dp10
g3
(lp11
I2
aI209
aI18
asg5
F1463973.0
sba(i__main__
Individual
p12
(dp13
g3
(lp14
I19
aI207
aI7
asg5
F1464113.0
sba.