(lp0
F55857.0
aF59171.0
aF58507.0
aF88329.0
aF56490.0
aF56407.0
a.(lp0
(i__main__
Individual
p1
(dp2
S'genome'
p3
(lp4
I142
aI30
aI212
asS'fitness'
p5
F55857.0
sba(i__main__
Individual
p6
(dp7
g3
(lp8
I142
aI30
aI187
asg5
F59171.0
sba(i__main__
Individual
p9
(dp10
g3
(lp11
I226
aI0
aI212
asg5
F58507.0
sba(i__main__
Individual
p12
(dp13
g3
(lp14
I218
aI68
aI79
asg5
F88329.0
sba(i__main__
Individual
p15
(dp16
g3
(lp17
I142
aI30
aI212
asg5
F56490.0
sba(i__main__
Individual
p18
(dp19
g3
(lp20
I142
aI30
aI212
asg5
F56407.0
sba.