(lp0
F330843.0
aF331270.0
aF335851.0
aF338985.0
aF349103.0
aF352890.0
aF363894.0
aF365053.0
aF366276.0
aF364513.0
aF368058.0
aF371343.0
aF399233.0
aF402912.0
aF407225.0
aF406000.0
aF395838.0
aF396888.0
aF400106.0
aF403029.0
aF404136.0
aF413908.0
aF414415.0
aF413186.0
aF417636.0
aF429669.0
aF432542.0
aF434799.0
aF440761.0
aF438073.0
aF429812.0
aF429779.0
aF433963.0
aF431946.0
aF426515.0
aF433717.0
aF427841.0
aF450445.0
aF438149.0
aF429045.0
aF430806.0
a.(lp0
(i__main__
Individual
p1
(dp2
S'genome'
p3
(lp4
I189
aI146
aI101
aI129
aI153
aI136
aI142
aI172
aI211
aI246
aI115
aI153
aI130
aI33
aI2
asS'fitness'
p5
F330843.0
sba(i__main__
Individual
p6
(dp7
g3
(lp8
I189
aI146
aI101
aI129
aI153
aI136
aI142
aI172
aI211
aI246
aI115
aI153
aI130
aI33
aI2
asg5
F331270.0
sba(i__main__
Individual
p9
(dp10
g3
(lp11
I189
aI146
aI101
aI129
aI95
aI136
aI138
aI172
aI211
aI246
aI115
aI153
aI130
aI33
aI11
asg5
F335851.0
sba(i__main__
Individual
p12
(dp13
g3
(lp14
I189
aI146
aI98
aI129
aI76
aI136
aI142
aI172
aI211
aI246
aI115
aI153
aI130
aI33
aI2
asg5
F338985.0
sba(i__main__
Individual
p15
(dp16
g3
(lp17
I189
aI146
aI98
aI195
aI76
aI136
aI142
aI172
aI211
aI246
aI115
aI153
aI130
aI33
aI2
asg5
F349103.0
sba(i__main__
Individual
p18
(dp19
g3
(lp20
I189
aI146
aI98
aI195
aI76
aI136
aI142
aI172
aI211
aI246
aI115
aI153
aI130
aI33
aI2
asg5
F352890.0
sba(i__main__
Individual
p21
(dp22
g3
(lp23
I189
aI146
aI98
aI195
aI76
aI136
aI142
aI172
aI206
aI246
aI98
aI153
aI130
aI33
aI2
asg5
F363894.0
sba(i__main__
Individual
p24
(dp25
g3
(lp26
I189
aI146
aI98
aI195
aI76
aI136
aI142
aI172
aI206
aI246
aI98
aI153
aI130
aI33
aI2
asg5
F365053.0
sba(i__main__
Individual
p27
(dp28
g3
(lp29
I189
aI146
aI98
aI195
aI76
aI136
aI142
aI172
aI206
aI246
aI98
aI153
aI130
aI33
aI2
asg5
F366276.0
sba(i__main__
Individual
p30
(dp31
g3
(lp32
I189
aI146
aI98
aI195
aI76
aI136
aI142
aI172
aI206
aI246
aI98
aI153
aI130
aI33
aI2
asg5
F364513.0
sba(i__main__
Individual
p33
(dp34
g3
(lp35
I189
aI146
aI98
aI195
aI76
aI136
aI130
aI172
aI206
aI246
aI98
aI153
aI130
aI33
aI0
asg5
F368058.0
sba(i__main__
Individual
p36
(dp37
g3
(lp38
I189
aI146
aI98
aI195
aI76
aI136
aI130
aI172
aI206
aI246
aI98
aI153
aI130
aI33
aI0
asg5
F371343.0
sba(i__main__
Individual
p39
(dp40
g3
(lp41
I177
aI146
aI98
aI195
aI76
aI145
aI142
aI74
aI144
aI246
aI98
aI153
aI130
aI33
aI0
asg5
F399233.0
sba(i__main__
Individual
p42
(dp43
g3
(lp44
I177
aI146
aI98
aI195
aI76
aI145
aI142
aI74
aI144
aI246
aI98
aI153
aI130
aI33
aI0
asg5
F402912.0
sba(i__main__
Individual
p45
(dp46
g3
(lp47
I177
aI146
aI98
aI195
aI76
aI145
aI142
aI74
aI144
aI246
aI98
aI153
aI130
aI33
aI0
asg5
F407225.0
sba(i__main__
Individual
p48
(dp49
g3
(lp50
I177
aI146
aI98
aI195
aI76
aI145
aI142
aI74
aI144
aI246
aI98
aI153
aI130
aI33
aI0
asg5
F406000.0
sba(i__main__
Individual
p51
(dp52
g3
(lp53
I177
aI146
aI98
aI195
aI76
aI145
aI142
aI74
aI144
aI246
aI98
aI153
aI130
aI33
aI0
asg5
F395838.0
sba(i__main__
Individual
p54
(dp55
g3
(lp56
I177
aI146
aI98
aI195
aI76
aI145
aI142
aI69
aI144
aI255
aI98
aI153
aI130
aI33
aI0
asg5
F396888.0
sba(i__main__
Individual
p57
(dp58
g3
(lp59
I177
aI146
aI98
aI195
aI76
aI145
aI142
aI69
aI144
aI255
aI98
aI153
aI130
aI33
aI0
asg5
F400106.0
sba(i__main__
Individual
p60
(dp61
g3
(lp62
I177
aI53
aI98
aI195
aI76
aI145
aI175
aI74
aI144
aI255
aI98
aI153
aI130
aI0
aI1
asg5
F403029.0
sba(i__main__
Individual
p63
(dp64
g3
(lp65
I177
aI53
aI98
aI195
aI76
aI145
aI175
aI74
aI144
aI255
aI98
aI153
aI130
aI0
aI1
asg5
F404136.0
sba(i__main__
Individual
p66
(dp67
g3
(lp68
I244
aI53
aI98
aI195
aI76
aI145
aI175
aI74
aI144
aI255
aI98
aI153
aI130
aI0
aI1
asg5
F413908.0
sba(i__main__
Individual
p69
(dp70
g3
(lp71
I177
aI53
aI98
aI195
aI76
aI144
aI175
aI74
aI144
aI255
aI98
aI153
aI130
aI0
aI1
asg5
F414415.0
sba(i__main__
Individual
p72
(dp73
g3
(lp74
I177
aI53
aI98
aI195
aI76
aI144
aI175
aI74
aI144
aI255
aI98
aI153
aI130
aI0
aI1
asg5
F413186.0
sba(i__main__
Individual
p75
(dp76
g3
(lp77
I177
aI53
aI98
aI195
aI76
aI144
aI175
aI74
aI144
aI255
aI98
aI153
aI130
aI0
aI1
asg5
F417636.0
sba(i__main__
Individual
p78
(dp79
g3
(lp80
I177
aI53
aI117
aI195
aI76
aI144
aI175
aI74
aI144
aI255
aI98
aI122
aI130
aI0
aI1
asg5
F429669.0
sba(i__main__
Individual
p81
(dp82
g3
(lp83
I177
aI53
aI117
aI195
aI76
aI144
aI175
aI74
aI144
aI255
aI98
aI122
aI170
aI0
aI1
asg5
F432542.0
sba(i__main__
Individual
p84
(dp85
g3
(lp86
I177
aI53
aI117
aI195
aI76
aI144
aI175
aI74
aI144
aI255
aI98
aI122
aI170
aI0
aI1
asg5
F434799.0
sba(i__main__
Individual
p87
(dp88
g3
(lp89
I177
aI53
aI124
aI195
aI76
aI144
aI175
aI74
aI144
aI255
aI98
aI130
aI170
aI0
aI1
asg5
F440761.0
sba(i__main__
Individual
p90
(dp91
g3
(lp92
I183
aI53
aI117
aI223
aI76
aI144
aI167
aI74
aI144
aI255
aI98
aI122
aI130
aI0
aI1
asg5
F438073.0
sba(i__main__
Individual
p93
(dp94
g3
(lp95
I177
aI58
aI84
aI187
aI76
aI144
aI167
aI74
aI144
aI255
aI98
aI122
aI122
aI0
aI1
asg5
F429812.0
sba(i__main__
Individual
p96
(dp97
g3
(lp98
I177
aI58
aI84
aI195
aI76
aI144
aI167
aI74
aI144
aI255
aI98
aI122
aI122
aI0
aI1
asg5
F429779.0
sba(i__main__
Individual
p99
(dp100
g3
(lp101
I177
aI58
aI84
aI195
aI76
aI144
aI167
aI74
aI144
aI255
aI98
aI122
aI122
aI0
aI1
asg5
F433963.0
sba(i__main__
Individual
p102
(dp103
g3
(lp104
I177
aI58
aI84
aI195
aI76
aI144
aI167
aI74
aI144
aI255
aI98
aI122
aI122
aI0
aI1
asg5
F431946.0
sba(i__main__
Individual
p105
(dp106
g3
(lp107
I177
aI58
aI84
aI195
aI76
aI144
aI167
aI74
aI144
aI255
aI98
aI122
aI122
aI0
aI1
asg5
F426515.0
sba(i__main__
Individual
p108
(dp109
g3
(lp110
I177
aI58
aI84
aI195
aI76
aI144
aI167
aI74
aI144
aI255
aI98
aI122
aI122
aI0
aI1
asg5
F433717.0
sba(i__main__
Individual
p111
(dp112
g3
(lp113
I177
aI58
aI142
aI214
aI76
aI144
aI167
aI74
aI144
aI255
aI98
aI122
aI122
aI0
aI1
asg5
F427841.0
sba(i__main__
Individual
p114
(dp115
g3
(lp116
I177
aI58
aI142
aI214
aI76
aI144
aI167
aI74
aI144
aI255
aI98
aI122
aI122
aI0
aI1
asg5
F450445.0
sba(i__main__
Individual
p117
(dp118
g3
(lp119
I177
aI58
aI84
aI195
aI76
aI144
aI167
aI74
aI144
aI255
aI98
aI122
aI122
aI0
aI1
asg5
F438149.0
sba(i__main__
Individual
p120
(dp121
g3
(lp122
I177
aI58
aI84
aI195
aI76
aI144
aI167
aI74
aI144
aI255
aI98
aI122
aI122
aI0
aI1
asg5
F429045.0
sba(i__main__
Individual
p123
(dp124
g3
(lp125
I177
aI58
aI84
aI195
aI76
aI144
aI167
aI74
aI144
aI255
aI98
aI122
aI122
aI0
aI1
asg5
F430806.0
sba.