(lp0
F1699810.0
aF1704843.0
aF1696538.0
aF1735727.0
aF1701238.0
aF1718079.0
aF1689567.0
aF1688388.0
aF1682240.0
aF1700170.0
aF1697647.0
aF1687073.0
aF1711169.0
aF1698943.0
aF1700259.0
aF1713356.0
aF1692006.0
aF1691630.0
aF1697576.0
aF1703031.0
aF1700108.0
aF1691956.0
aF1693167.0
aF1707002.0
aF1691435.0
aF1732454.0
aF1695760.0
aF1692686.0
aF1716802.0
aF1720352.0
aF1694256.0
aF1695814.0
aF1727287.0
aF1694860.0
aF1750466.0
aF1687384.0
aF1683876.0
aF1697958.0
aF1687555.0
aF1694261.0
aF1683570.0
aF1692848.0
aF1718821.0
aF1680023.0
aF1633734.0
aF1611010.0
aF1632461.0
aF1565312.0
aF1572718.0
aF1577397.0
aF1568050.0
aF1569814.0
aF1577379.0
aF1597435.0
aF1566430.0
aF1576878.0
aF1601402.0
aF1583601.0
aF1567504.0
aF1590563.0
aF1575390.0
aF1578476.0
aF1575845.0
aF1576660.0
aF1585053.0
aF1583193.0
aF1582434.0
aF1553715.0
aF1569319.0
aF1578891.0
aF1582040.0
aF1575272.0
aF1573608.0
aF1564149.0
aF1562443.0
aF1569792.0
aF1583062.0
aF1574702.0
aF1572681.0
aF1574607.0
aF1580930.0
aF1580655.0
aF1583159.0
aF1578774.0
aF1562460.0
aF1553619.0
aF1560597.0
aF1576626.0
aF1570761.0
aF1525204.0
aF1523098.0
aF1526057.0
aF1522909.0
aF1532017.0
aF1525861.0
aF1527612.0
aF1530178.0
aF1531374.0
aF1533880.0
aF1538285.0
aF1542559.0
a.(lp0
(i__main__
Individual
p1
(dp2
S'genome'
p3
(lp4
I230
aI13
aI79
aI95
aI221
aI99
aI181
aI136
aI100
aI97
aI112
aI82
aI113
aI43
aI99
asS'fitness'
p5
F1699810.0
sba(i__main__
Individual
p6
(dp7
g3
(lp8
I255
aI13
aI79
aI95
aI221
aI99
aI181
aI136
aI100
aI97
aI112
aI82
aI113
aI43
aI99
asg5
F1704843.0
sba(i__main__
Individual
p9
(dp10
g3
(lp11
I230
aI13
aI79
aI95
aI221
aI99
aI181
aI136
aI100
aI97
aI112
aI82
aI113
aI43
aI99
asg5
F1696538.0
sba(i__main__
Individual
p12
(dp13
g3
(lp14
I162
aI149
aI211
aI131
aI116
aI179
aI192
aI99
aI133
aI248
aI53
aI151
aI88
aI131
aI39
asg5
F1735727.0
sba(i__main__
Individual
p15
(dp16
g3
(lp17
I121
aI149
aI211
aI103
aI116
aI179
aI247
aI99
aI133
aI248
aI177
aI243
aI88
aI131
aI39
asg5
F1701238.0
sba(i__main__
Individual
p18
(dp19
g3
(lp20
I230
aI6
aI79
aI95
aI221
aI99
aI205
aI97
aI100
aI97
aI94
aI82
aI113
aI43
aI99
asg5
F1718079.0
sba(i__main__
Individual
p21
(dp22
g3
(lp23
I230
aI13
aI79
aI95
aI221
aI99
aI181
aI136
aI100
aI97
aI112
aI82
aI113
aI43
aI99
asg5
F1689567.0
sba(i__main__
Individual
p24
(dp25
g3
(lp26
I230
aI13
aI79
aI95
aI221
aI99
aI181
aI136
aI100
aI97
aI112
aI82
aI131
aI43
aI99
asg5
F1688388.0
sba(i__main__
Individual
p27
(dp28
g3
(lp29
I121
aI149
aI211
aI131
aI116
aI179
aI192
aI99
aI133
aI248
aI177
aI243
aI88
aI131
aI39
asg5
F1682240.0
sba(i__main__
Individual
p30
(dp31
g3
(lp32
I230
aI13
aI79
aI95
aI181
aI99
aI181
aI136
aI100
aI97
aI112
aI82
aI113
aI43
aI99
asg5
F1700170.0
sba(i__main__
Individual
p33
(dp34
g3
(lp35
I230
aI13
aI79
aI95
aI221
aI99
aI181
aI136
aI100
aI97
aI112
aI82
aI113
aI43
aI99
asg5
F1697647.0
sba(i__main__
Individual
p36
(dp37
g3
(lp38
I121
aI149
aI213
aI131
aI116
aI179
aI192
aI99
aI133
aI248
aI177
aI243
aI88
aI131
aI39
asg5
F1687073.0
sba(i__main__
Individual
p39
(dp40
g3
(lp41
I230
aI13
aI79
aI95
aI221
aI99
aI181
aI136
aI100
aI100
aI112
aI82
aI113
aI43
aI99
asg5
F1711169.0
sba(i__main__
Individual
p42
(dp43
g3
(lp44
I230
aI13
aI79
aI95
aI221
aI99
aI181
aI136
aI100
aI97
aI112
aI82
aI113
aI43
aI99
asg5
F1698943.0
sba(i__main__
Individual
p45
(dp46
g3
(lp47
I230
aI13
aI79
aI95
aI221
aI99
aI181
aI136
aI100
aI97
aI112
aI82
aI113
aI43
aI99
asg5
F1700259.0
sba(i__main__
Individual
p48
(dp49
g3
(lp50
I230
aI13
aI79
aI56
aI221
aI99
aI181
aI136
aI100
aI97
aI112
aI82
aI113
aI43
aI99
asg5
F1713356.0
sba(i__main__
Individual
p51
(dp52
g3
(lp53
I230
aI13
aI67
aI95
aI221
aI99
aI181
aI136
aI100
aI176
aI112
aI82
aI113
aI43
aI99
asg5
F1692006.0
sba(i__main__
Individual
p54
(dp55
g3
(lp56
I230
aI13
aI79
aI95
aI221
aI99
aI181
aI136
aI100
aI97
aI112
aI82
aI113
aI43
aI99
asg5
F1691630.0
sba(i__main__
Individual
p57
(dp58
g3
(lp59
I230
aI13
aI79
aI95
aI221
aI99
aI181
aI136
aI100
aI97
aI112
aI82
aI113
aI43
aI99
asg5
F1697576.0
sba(i__main__
Individual
p60
(dp61
g3
(lp62
I230
aI13
aI79
aI95
aI221
aI99
aI181
aI136
aI100
aI97
aI112
aI82
aI113
aI43
aI99
asg5
F1703031.0
sba(i__main__
Individual
p63
(dp64
g3
(lp65
I121
aI149
aI211
aI131
aI116
aI179
aI192
aI99
aI133
aI248
aI177
aI243
aI88
aI131
aI39
asg5
F1700108.0
sba(i__main__
Individual
p66
(dp67
g3
(lp68
I242
aI124
aI180
aI118
aI192
aI78
aI47
aI255
aI91
aI194
aI216
aI5
aI69
aI79
aI83
asg5
F1691956.0
sba(i__main__
Individual
p69
(dp70
g3
(lp71
I230
aI13
aI79
aI95
aI221
aI99
aI181
aI136
aI100
aI97
aI112
aI82
aI113
aI43
aI99
asg5
F1693167.0
sba(i__main__
Individual
p72
(dp73
g3
(lp74
I230
aI13
aI79
aI95
aI221
aI99
aI181
aI136
aI140
aI97
aI112
aI82
aI113
aI43
aI99
asg5
F1707002.0
sba(i__main__
Individual
p75
(dp76
g3
(lp77
I138
aI61
aI211
aI131
aI116
aI179
aI192
aI99
aI133
aI248
aI177
aI243
aI88
aI131
aI39
asg5
F1691435.0
sba(i__main__
Individual
p78
(dp79
g3
(lp80
I230
aI13
aI79
aI95
aI221
aI99
aI181
aI136
aI177
aI97
aI112
aI88
aI113
aI43
aI99
asg5
F1732454.0
sba(i__main__
Individual
p81
(dp82
g3
(lp83
I255
aI13
aI79
aI95
aI221
aI99
aI181
aI136
aI100
aI97
aI112
aI82
aI113
aI43
aI99
asg5
F1695760.0
sba(i__main__
Individual
p84
(dp85
g3
(lp86
I230
aI13
aI79
aI95
aI197
aI59
aI181
aI136
aI100
aI97
aI112
aI82
aI113
aI43
aI99
asg5
F1692686.0
sba(i__main__
Individual
p87
(dp88
g3
(lp89
I230
aI13
aI79
aI95
aI221
aI99
aI181
aI136
aI100
aI97
aI112
aI82
aI113
aI103
aI99
asg5
F1716802.0
sba(i__main__
Individual
p90
(dp91
g3
(lp92
I121
aI149
aI211
aI131
aI116
aI179
aI192
aI99
aI133
aI248
aI177
aI243
aI88
aI131
aI39
asg5
F1720352.0
sba(i__main__
Individual
p93
(dp94
g3
(lp95
I230
aI13
aI79
aI95
aI221
aI99
aI181
aI136
aI100
aI97
aI112
aI82
aI113
aI43
aI99
asg5
F1694256.0
sba(i__main__
Individual
p96
(dp97
g3
(lp98
I230
aI13
aI79
aI95
aI221
aI99
aI181
aI136
aI100
aI97
aI112
aI82
aI113
aI43
aI99
asg5
F1695814.0
sba(i__main__
Individual
p99
(dp100
g3
(lp101
I121
aI149
aI211
aI131
aI116
aI179
aI247
aI99
aI133
aI248
aI177
aI243
aI88
aI131
aI39
asg5
F1727287.0
sba(i__main__
Individual
p102
(dp103
g3
(lp104
I230
aI13
aI79
aI95
aI221
aI99
aI181
aI136
aI100
aI97
aI112
aI82
aI113
aI43
aI99
asg5
F1694860.0
sba(i__main__
Individual
p105
(dp106
g3
(lp107
I121
aI149
aI211
aI131
aI116
aI179
aI192
aI99
aI166
aI248
aI133
aI243
aI88
aI131
aI39
asg5
F1750466.0
sba(i__main__
Individual
p108
(dp109
g3
(lp110
I121
aI135
aI211
aI131
aI116
aI179
aI192
aI99
aI133
aI248
aI177
aI243
aI88
aI131
aI39
asg5
F1687384.0
sba(i__main__
Individual
p111
(dp112
g3
(lp113
I230
aI13
aI79
aI95
aI221
aI99
aI181
aI136
aI100
aI97
aI112
aI82
aI113
aI43
aI99
asg5
F1683876.0
sba(i__main__
Individual
p114
(dp115
g3
(lp116
I121
aI149
aI211
aI198
aI116
aI179
aI192
aI99
aI133
aI194
aI177
aI243
aI88
aI131
aI39
asg5
F1697958.0
sba(i__main__
Individual
p117
(dp118
g3
(lp119
I230
aI13
aI79
aI95
aI221
aI99
aI181
aI136
aI100
aI97
aI112
aI82
aI113
aI43
aI99
asg5
F1687555.0
sba(i__main__
Individual
p120
(dp121
g3
(lp122
I230
aI13
aI79
aI95
aI221
aI99
aI181
aI136
aI100
aI97
aI112
aI82
aI113
aI43
aI99
asg5
F1694261.0
sba(i__main__
Individual
p123
(dp124
g3
(lp125
I230
aI13
aI79
aI95
aI221
aI99
aI181
aI136
aI100
aI97
aI112
aI82
aI113
aI43
aI99
asg5
F1683570.0
sba(i__main__
Individual
p126
(dp127
g3
(lp128
I230
aI13
aI79
aI95
aI221
aI99
aI181
aI136
aI100
aI97
aI112
aI82
aI113
aI97
aI99
asg5
F1692848.0
sba(i__main__
Individual
p129
(dp130
g3
(lp131
I230
aI13
aI79
aI95
aI221
aI130
aI181
aI55
aI100
aI97
aI112
aI82
aI113
aI43
aI99
asg5
F1718821.0
sba(i__main__
Individual
p132
(dp133
g3
(lp134
I255
aI13
aI121
aI95
aI221
aI104
aI131
aI136
aI100
aI97
aI112
aI82
aI113
aI43
aI99
asg5
F1680023.0
sba(i__main__
Individual
p135
(dp136
g3
(lp137
I230
aI13
aI91
aI95
aI221
aI99
aI181
aI136
aI100
aI97
aI112
aI82
aI113
aI43
aI135
asg5
F1633734.0
sba(i__main__
Individual
p138
(dp139
g3
(lp140
I230
aI13
aI79
aI95
aI221
aI99
aI181
aI136
aI100
aI97
aI112
aI82
aI113
aI43
aI99
asg5
F1611010.0
sba(i__main__
Individual
p141
(dp142
g3
(lp143
I121
aI149
aI211
aI131
aI116
aI179
aI192
aI99
aI133
aI255
aI177
aI243
aI88
aI131
aI39
asg5
F1632461.0
sba(i__main__
Individual
p144
(dp145
g3
(lp146
I121
aI149
aI211
aI131
aI116
aI179
aI192
aI99
aI133
aI248
aI177
aI243
aI88
aI131
aI39
asg5
F1565312.0
sba(i__main__
Individual
p147
(dp148
g3
(lp149
I121
aI149
aI211
aI131
aI116
aI179
aI192
aI99
aI133
aI248
aI177
aI243
aI88
aI131
aI39
asg5
F1572718.0
sba(i__main__
Individual
p150
(dp151
g3
(lp152
I121
aI149
aI211
aI131
aI107
aI179
aI192
aI99
aI133
aI248
aI177
aI255
aI88
aI131
aI77
asg5
F1577397.0
sba(i__main__
Individual
p153
(dp154
g3
(lp155
I121
aI149
aI211
aI131
aI116
aI179
aI192
aI99
aI133
aI248
aI177
aI255
aI48
aI131
aI39
asg5
F1568050.0
sba(i__main__
Individual
p156
(dp157
g3
(lp158
I121
aI149
aI248
aI131
aI116
aI154
aI192
aI124
aI133
aI248
aI177
aI243
aI88
aI131
aI39
asg5
F1569814.0
sba(i__main__
Individual
p159
(dp160
g3
(lp161
I121
aI149
aI211
aI131
aI116
aI179
aI192
aI99
aI133
aI248
aI177
aI243
aI88
aI208
aI39
asg5
F1577379.0
sba(i__main__
Individual
p162
(dp163
g3
(lp164
I230
aI13
aI79
aI95
aI221
aI99
aI181
aI136
aI100
aI94
aI112
aI103
aI113
aI102
aI99
asg5
F1597435.0
sba(i__main__
Individual
p165
(dp166
g3
(lp167
I121
aI149
aI211
aI131
aI116
aI179
aI192
aI99
aI133
aI248
aI177
aI243
aI88
aI131
aI84
asg5
F1566430.0
sba(i__main__
Individual
p168
(dp169
g3
(lp170
I244
aI149
aI211
aI131
aI116
aI179
aI192
aI99
aI133
aI248
aI110
aI243
aI88
aI131
aI39
asg5
F1576878.0
sba(i__main__
Individual
p171
(dp172
g3
(lp173
I230
aI13
aI148
aI95
aI221
aI99
aI181
aI136
aI100
aI97
aI112
aI82
aI120
aI106
aI99
asg5
F1601402.0
sba(i__main__
Individual
p174
(dp175
g3
(lp176
I121
aI149
aI211
aI131
aI116
aI179
aI192
aI99
aI133
aI248
aI177
aI243
aI88
aI131
aI39
asg5
F1583601.0
sba(i__main__
Individual
p177
(dp178
g3
(lp179
I82
aI238
aI86
aI140
aI178
aI84
aI228
aI140
aI18
aI133
aI150
aI201
aI211
aI136
aI155
asg5
F1567504.0
sba(i__main__
Individual
p180
(dp181
g3
(lp182
I230
aI13
aI79
aI95
aI238
aI99
aI181
aI136
aI97
aI97
aI112
aI82
aI113
aI43
aI99
asg5
F1590563.0
sba(i__main__
Individual
p183
(dp184
g3
(lp185
I121
aI149
aI211
aI131
aI116
aI179
aI192
aI99
aI133
aI248
aI177
aI243
aI88
aI131
aI39
asg5
F1575390.0
sba(i__main__
Individual
p186
(dp187
g3
(lp188
I230
aI13
aI79
aI95
aI255
aI99
aI181
aI155
aI100
aI97
aI112
aI82
aI113
aI43
aI99
asg5
F1578476.0
sba(i__main__
Individual
p189
(dp190
g3
(lp191
I121
aI149
aI211
aI131
aI116
aI179
aI192
aI99
aI133
aI248
aI177
aI243
aI88
aI131
aI39
asg5
F1575845.0
sba(i__main__
Individual
p192
(dp193
g3
(lp194
I121
aI149
aI211
aI131
aI116
aI179
aI192
aI99
aI133
aI248
aI177
aI243
aI88
aI131
aI39
asg5
F1576660.0
sba(i__main__
Individual
p195
(dp196
g3
(lp197
I121
aI149
aI211
aI143
aI116
aI179
aI192
aI99
aI133
aI248
aI177
aI243
aI88
aI131
aI39
asg5
F1585053.0
sba(i__main__
Individual
p198
(dp199
g3
(lp200
I121
aI149
aI211
aI143
aI116
aI179
aI192
aI99
aI133
aI248
aI177
aI243
aI88
aI131
aI47
asg5
F1583193.0
sba(i__main__
Individual
p201
(dp202
g3
(lp203
I121
aI149
aI211
aI131
aI116
aI179
aI192
aI99
aI133
aI248
aI177
aI243
aI73
aI131
aI39
asg5
F1582434.0
sba(i__main__
Individual
p204
(dp205
g3
(lp206
I255
aI13
aI79
aI95
aI221
aI99
aI181
aI136
aI100
aI97
aI112
aI82
aI113
aI43
aI99
asg5
F1553715.0
sba(i__main__
Individual
p207
(dp208
g3
(lp209
I121
aI149
aI211
aI131
aI116
aI179
aI192
aI99
aI133
aI248
aI177
aI243
aI88
aI131
aI39
asg5
F1569319.0
sba(i__main__
Individual
p210
(dp211
g3
(lp212
I121
aI149
aI211
aI131
aI116
aI179
aI192
aI99
aI133
aI248
aI177
aI233
aI88
aI131
aI39
asg5
F1578891.0
sba(i__main__
Individual
p213
(dp214
g3
(lp215
I121
aI149
aI211
aI131
aI116
aI179
aI192
aI99
aI133
aI166
aI177
aI243
aI88
aI131
aI39
asg5
F1582040.0
sba(i__main__
Individual
p216
(dp217
g3
(lp218
I121
aI149
aI211
aI131
aI116
aI179
aI192
aI99
aI133
aI248
aI177
aI243
aI88
aI131
aI39
asg5
F1575272.0
sba(i__main__
Individual
p219
(dp220
g3
(lp221
I82
aI238
aI86
aI140
aI178
aI84
aI228
aI140
aI18
aI133
aI150
aI201
aI211
aI136
aI141
asg5
F1573608.0
sba(i__main__
Individual
p222
(dp223
g3
(lp224
I121
aI149
aI211
aI131
aI116
aI179
aI192
aI99
aI133
aI248
aI177
aI243
aI88
aI131
aI39
asg5
F1564149.0
sba(i__main__
Individual
p225
(dp226
g3
(lp227
I121
aI149
aI211
aI131
aI116
aI179
aI192
aI99
aI133
aI248
aI177
aI243
aI88
aI173
aI39
asg5
F1562443.0
sba(i__main__
Individual
p228
(dp229
g3
(lp230
I121
aI130
aI211
aI131
aI116
aI179
aI218
aI99
aI133
aI248
aI177
aI243
aI88
aI131
aI39
asg5
F1569792.0
sba(i__main__
Individual
p231
(dp232
g3
(lp233
I121
aI149
aI211
aI131
aI116
aI179
aI192
aI99
aI133
aI190
aI108
aI243
aI88
aI131
aI135
asg5
F1583062.0
sba(i__main__
Individual
p234
(dp235
g3
(lp236
I121
aI149
aI177
aI131
aI116
aI179
aI192
aI99
aI133
aI248
aI177
aI243
aI88
aI131
aI39
asg5
F1574702.0
sba(i__main__
Individual
p237
(dp238
g3
(lp239
I31
aI166
aI211
aI131
aI116
aI179
aI192
aI99
aI133
aI248
aI177
aI243
aI88
aI131
aI39
asg5
F1572681.0
sba(i__main__
Individual
p240
(dp241
g3
(lp242
I121
aI145
aI232
aI131
aI116
aI179
aI192
aI99
aI110
aI248
aI239
aI243
aI88
aI221
aI39
asg5
F1574607.0
sba(i__main__
Individual
p243
(dp244
g3
(lp245
I230
aI13
aI79
aI95
aI221
aI99
aI181
aI89
aI100
aI97
aI112
aI82
aI113
aI43
aI99
asg5
F1580930.0
sba(i__main__
Individual
p246
(dp247
g3
(lp248
I121
aI149
aI255
aI16
aI116
aI179
aI192
aI99
aI133
aI248
aI177
aI243
aI88
aI131
aI39
asg5
F1580655.0
sba(i__main__
Individual
p249
(dp250
g3
(lp251
I121
aI149
aI211
aI131
aI116
aI179
aI192
aI99
aI131
aI248
aI177
aI243
aI88
aI131
aI39
asg5
F1583159.0
sba(i__main__
Individual
p252
(dp253
g3
(lp254
I42
aI149
aI211
aI131
aI116
aI179
aI192
aI99
aI133
aI248
aI177
aI255
aI88
aI131
aI39
asg5
F1578774.0
sba(i__main__
Individual
p255
(dp256
g3
(lp257
I121
aI149
aI211
aI131
aI116
aI179
aI192
aI99
aI133
aI248
aI177
aI243
aI88
aI131
aI39
asg5
F1562460.0
sba(i__main__
Individual
p258
(dp259
g3
(lp260
I230
aI13
aI79
aI95
aI217
aI99
aI181
aI136
aI100
aI97
aI112
aI82
aI113
aI43
aI99
asg5
F1553619.0
sba(i__main__
Individual
p261
(dp262
g3
(lp263
I230
aI13
aI79
aI186
aI221
aI99
aI181
aI136
aI125
aI97
aI112
aI82
aI113
aI43
aI99
asg5
F1560597.0
sba(i__main__
Individual
p264
(dp265
g3
(lp266
I121
aI149
aI211
aI131
aI116
aI179
aI192
aI71
aI133
aI248
aI177
aI243
aI88
aI131
aI39
asg5
F1576626.0
sba(i__main__
Individual
p267
(dp268
g3
(lp269
I121
aI149
aI211
aI131
aI116
aI179
aI192
aI99
aI133
aI248
aI177
aI243
aI88
aI131
aI39
asg5
F1570761.0
sba(i__main__
Individual
p270
(dp271
g3
(lp272
I140
aI100
aI215
aI146
aI69
aI102
aI5
aI244
aI223
aI242
aI230
aI98
aI0
aI240
aI119
asg5
F1525204.0
sba(i__main__
Individual
p273
(dp274
g3
(lp275
I140
aI100
aI215
aI146
aI69
aI102
aI5
aI244
aI223
aI255
aI230
aI98
aI5
aI240
aI119
asg5
F1523098.0
sba(i__main__
Individual
p276
(dp277
g3
(lp278
I230
aI13
aI79
aI95
aI221
aI99
aI181
aI101
aI133
aI97
aI129
aI82
aI113
aI33
aI99
asg5
F1526057.0
sba(i__main__
Individual
p279
(dp280
g3
(lp281
I140
aI100
aI215
aI146
aI69
aI102
aI85
aI244
aI223
aI242
aI230
aI98
aI5
aI240
aI119
asg5
F1522909.0
sba(i__main__
Individual
p282
(dp283
g3
(lp284
I140
aI100
aI215
aI146
aI69
aI102
aI5
aI255
aI223
aI242
aI230
aI98
aI5
aI240
aI119
asg5
F1532017.0
sba(i__main__
Individual
p285
(dp286
g3
(lp287
I82
aI238
aI86
aI140
aI178
aI139
aI228
aI140
aI18
aI133
aI150
aI192
aI211
aI136
aI202
asg5
F1525861.0
sba(i__main__
Individual
p288
(dp289
g3
(lp290
I140
aI100
aI215
aI146
aI69
aI102
aI5
aI244
aI223
aI242
aI230
aI98
aI5
aI240
aI119
asg5
F1527612.0
sba(i__main__
Individual
p291
(dp292
g3
(lp293
I140
aI100
aI215
aI146
aI69
aI102
aI5
aI244
aI223
aI242
aI230
aI98
aI5
aI240
aI119
asg5
F1530178.0
sba(i__main__
Individual
p294
(dp295
g3
(lp296
I121
aI149
aI211
aI131
aI116
aI179
aI192
aI99
aI133
aI248
aI177
aI243
aI88
aI131
aI39
asg5
F1531374.0
sba(i__main__
Individual
p297
(dp298
g3
(lp299
I140
aI152
aI215
aI146
aI69
aI102
aI5
aI215
aI223
aI214
aI230
aI98
aI5
aI240
aI119
asg5
F1533880.0
sba(i__main__
Individual
p300
(dp301
g3
(lp302
I82
aI238
aI138
aI140
aI178
aI84
aI228
aI140
aI18
aI133
aI150
aI201
aI211
aI136
aI202
asg5
F1538285.0
sba(i__main__
Individual
p303
(dp304
g3
(lp305
I242
aI149
aI144
aI118
aI192
aI78
aI47
aI251
aI91
aI194
aI216
aI0
aI69
aI79
aI83
asg5
F1542559.0
sba.