(lp0
F119260.0
aF119338.0
aF122500.0
aF115631.0
aF120787.0
aF120688.0
aF121098.0
aF121145.0
aF121369.0
aF121958.0
aF122500.0
aF122500.0
aF122500.0
aF122500.0
aF122500.0
aF122500.0
aF122500.0
a.(lp0
(i__main__
Individual
p1
(dp2
S'genome'
p3
(lp4
I67
aI197
aI204
asS'fitness'
p5
F119260.0
sba(i__main__
Individual
p6
(dp7
g3
(lp8
I67
aI197
aI204
asg5
F119338.0
sba(i__main__
Individual
p9
(dp10
g3
(lp11
I67
aI197
aI204
asg5
F122500.0
sba(i__main__
Individual
p12
(dp13
g3
(lp14
I67
aI197
aI155
asg5
F115631.0
sba(i__main__
Individual
p15
(dp16
g3
(lp17
I67
aI197
aI204
asg5
F120787.0
sba(i__main__
Individual
p18
(dp19
g3
(lp20
I67
aI197
aI204
asg5
F120688.0
sba(i__main__
Individual
p21
(dp22
g3
(lp23
I67
aI197
aI204
asg5
F121098.0
sba(i__main__
Individual
p24
(dp25
g3
(lp26
I67
aI197
aI204
asg5
F121145.0
sba(i__main__
Individual
p27
(dp28
g3
(lp29
I67
aI197
aI204
asg5
F121369.0
sba(i__main__
Individual
p30
(dp31
g3
(lp32
I67
aI197
aI204
asg5
F121958.0
sba(i__main__
Individual
p33
(dp34
g3
(lp35
I67
aI197
aI204
asg5
F122500.0
sba(i__main__
Individual
p36
(dp37
g3
(lp38
I67
aI197
aI204
asg5
F122500.0
sba(i__main__
Individual
p39
(dp40
g3
(lp41
I67
aI197
aI204
asg5
F122500.0
sba(i__main__
Individual
p42
(dp43
g3
(lp44
I67
aI197
aI204
asg5
F122500.0
sba(i__main__
Individual
p45
(dp46
g3
(lp47
I67
aI197
aI204
asg5
F122500.0
sba(i__main__
Individual
p48
(dp49
g3
(lp50
I67
aI197
aI204
asg5
F122500.0
sba(i__main__
Individual
p51
(dp52
g3
(lp53
I67
aI197
aI204
asg5
F122500.0
sba.