(lp0
F309422.0
aF328794.0
aF328894.0
aF354844.0
aF377085.0
aF382353.0
aF394795.0
aF411460.0
aF407127.0
aF414643.0
aF410853.0
aF416904.0
aF420862.0
aF421821.0
aF422258.0
aF417290.0
aF420511.0
aF421893.0
aF418669.0
aF417029.0
aF419208.0
aF417275.0
aF419673.0
aF418854.0
aF413150.0
aF417418.0
aF423578.0
aF419809.0
aF418698.0
aF422854.0
aF420249.0
aF432260.0
aF423707.0
aF421990.0
aF419667.0
aF415532.0
aF420288.0
aF424319.0
aF423019.0
aF430395.0
aF436373.0
aF438504.0
aF441390.0
aF437840.0
aF443367.0
aF438010.0
aF437841.0
aF438755.0
aF444832.0
aF452211.0
aF448533.0
aF453348.0
aF453696.0
aF450132.0
aF446426.0
aF452547.0
aF448191.0
aF447093.0
aF443021.0
aF448673.0
aF446299.0
aF447836.0
aF447105.0
aF450739.0
aF448810.0
aF456728.0
aF457875.0
aF460326.0
aF458362.0
aF462220.0
aF457047.0
aF460106.0
aF459593.0
aF457970.0
aF455544.0
aF459695.0
aF458983.0
aF458322.0
aF465392.0
aF469448.0
aF463538.0
aF467185.0
aF498150.0
aF467603.0
aF466982.0
aF470124.0
aF469908.0
aF469034.0
aF467091.0
aF465785.0
aF472331.0
aF468201.0
aF471154.0
aF470250.0
aF469345.0
aF472256.0
aF469113.0
aF470860.0
aF475981.0
aF474222.0
aF469255.0
a.(lp0
(i__main__
Individual
p1
(dp2
S'genome'
p3
(lp4
I237
aI94
aI84
asS'fitness'
p5
F309422.0
sba(i__main__
Individual
p6
(dp7
g3
(lp8
I255
aI20
aI84
asg5
F328794.0
sba(i__main__
Individual
p9
(dp10
g3
(lp11
I237
aI117
aI86
asg5
F328894.0
sba(i__main__
Individual
p12
(dp13
g3
(lp14
I237
aI40
aI86
asg5
F354844.0
sba(i__main__
Individual
p15
(dp16
g3
(lp17
I255
aI73
aI84
asg5
F377085.0
sba(i__main__
Individual
p18
(dp19
g3
(lp20
I255
aI73
aI84
asg5
F382353.0
sba(i__main__
Individual
p21
(dp22
g3
(lp23
I255
aI73
aI84
asg5
F394795.0
sba(i__main__
Individual
p24
(dp25
g3
(lp26
I255
aI65
aI103
asg5
F411460.0
sba(i__main__
Individual
p27
(dp28
g3
(lp29
I255
aI65
aI103
asg5
F407127.0
sba(i__main__
Individual
p30
(dp31
g3
(lp32
I255
aI65
aI103
asg5
F414643.0
sba(i__main__
Individual
p33
(dp34
g3
(lp35
I255
aI65
aI103
asg5
F410853.0
sba(i__main__
Individual
p36
(dp37
g3
(lp38
I242
aI65
aI103
asg5
F416904.0
sba(i__main__
Individual
p39
(dp40
g3
(lp41
I255
aI65
aI103
asg5
F420862.0
sba(i__main__
Individual
p42
(dp43
g3
(lp44
I255
aI59
aI95
asg5
F421821.0
sba(i__main__
Individual
p45
(dp46
g3
(lp47
I255
aI65
aI103
asg5
F422258.0
sba(i__main__
Individual
p48
(dp49
g3
(lp50
I253
aI59
aI95
asg5
F417290.0
sba(i__main__
Individual
p51
(dp52
g3
(lp53
I255
aI59
aI95
asg5
F420511.0
sba(i__main__
Individual
p54
(dp55
g3
(lp56
I253
aI59
aI95
asg5
F421893.0
sba(i__main__
Individual
p57
(dp58
g3
(lp59
I253
aI59
aI95
asg5
F418669.0
sba(i__main__
Individual
p60
(dp61
g3
(lp62
I255
aI59
aI95
asg5
F417029.0
sba(i__main__
Individual
p63
(dp64
g3
(lp65
I255
aI59
aI95
asg5
F419208.0
sba(i__main__
Individual
p66
(dp67
g3
(lp68
I255
aI59
aI95
asg5
F417275.0
sba(i__main__
Individual
p69
(dp70
g3
(lp71
I255
aI59
aI95
asg5
F419673.0
sba(i__main__
Individual
p72
(dp73
g3
(lp74
I255
aI59
aI95
asg5
F418854.0
sba(i__main__
Individual
p75
(dp76
g3
(lp77
I255
aI59
aI95
asg5
F413150.0
sba(i__main__
Individual
p78
(dp79
g3
(lp80
I255
aI59
aI95
asg5
F417418.0
sba(i__main__
Individual
p81
(dp82
g3
(lp83
I255
aI59
aI93
asg5
F423578.0
sba(i__main__
Individual
p84
(dp85
g3
(lp86
I235
aI59
aI109
asg5
F419809.0
sba(i__main__
Individual
p87
(dp88
g3
(lp89
I235
aI59
aI109
asg5
F418698.0
sba(i__main__
Individual
p90
(dp91
g3
(lp92
I255
aI59
aI109
asg5
F422854.0
sba(i__main__
Individual
p93
(dp94
g3
(lp95
I255
aI59
aI109
asg5
F420249.0
sba(i__main__
Individual
p96
(dp97
g3
(lp98
I255
aI59
aI109
asg5
F432260.0
sba(i__main__
Individual
p99
(dp100
g3
(lp101
I243
aI59
aI109
asg5
F423707.0
sba(i__main__
Individual
p102
(dp103
g3
(lp104
I243
aI59
aI109
asg5
F421990.0
sba(i__main__
Individual
p105
(dp106
g3
(lp107
I243
aI59
aI109
asg5
F419667.0
sba(i__main__
Individual
p108
(dp109
g3
(lp110
I246
aI59
aI109
asg5
F415532.0
sba(i__main__
Individual
p111
(dp112
g3
(lp113
I255
aI59
aI109
asg5
F420288.0
sba(i__main__
Individual
p114
(dp115
g3
(lp116
I255
aI59
aI109
asg5
F424319.0
sba(i__main__
Individual
p117
(dp118
g3
(lp119
I255
aI59
aI109
asg5
F423019.0
sba(i__main__
Individual
p120
(dp121
g3
(lp122
I255
aI59
aI83
asg5
F430395.0
sba(i__main__
Individual
p123
(dp124
g3
(lp125
I255
aI59
aI83
asg5
F436373.0
sba(i__main__
Individual
p126
(dp127
g3
(lp128
I255
aI59
aI83
asg5
F438504.0
sba(i__main__
Individual
p129
(dp130
g3
(lp131
I255
aI59
aI83
asg5
F441390.0
sba(i__main__
Individual
p132
(dp133
g3
(lp134
I255
aI59
aI83
asg5
F437840.0
sba(i__main__
Individual
p135
(dp136
g3
(lp137
I255
aI59
aI83
asg5
F443367.0
sba(i__main__
Individual
p138
(dp139
g3
(lp140
I255
aI59
aI83
asg5
F438010.0
sba(i__main__
Individual
p141
(dp142
g3
(lp143
I255
aI59
aI83
asg5
F437841.0
sba(i__main__
Individual
p144
(dp145
g3
(lp146
I255
aI59
aI83
asg5
F438755.0
sba(i__main__
Individual
p147
(dp148
g3
(lp149
I255
aI59
aI83
asg5
F444832.0
sba(i__main__
Individual
p150
(dp151
g3
(lp152
I255
aI49
aI83
asg5
F452211.0
sba(i__main__
Individual
p153
(dp154
g3
(lp155
I255
aI49
aI83
asg5
F448533.0
sba(i__main__
Individual
p156
(dp157
g3
(lp158
I255
aI47
aI83
asg5
F453348.0
sba(i__main__
Individual
p159
(dp160
g3
(lp161
I255
aI47
aI83
asg5
F453696.0
sba(i__main__
Individual
p162
(dp163
g3
(lp164
I255
aI49
aI83
asg5
F450132.0
sba(i__main__
Individual
p165
(dp166
g3
(lp167
I250
aI49
aI83
asg5
F446426.0
sba(i__main__
Individual
p168
(dp169
g3
(lp170
I255
aI49
aI83
asg5
F452547.0
sba(i__main__
Individual
p171
(dp172
g3
(lp173
I255
aI47
aI83
asg5
F448191.0
sba(i__main__
Individual
p174
(dp175
g3
(lp176
I255
aI57
aI83
asg5
F447093.0
sba(i__main__
Individual
p177
(dp178
g3
(lp179
I255
aI57
aI83
asg5
F443021.0
sba(i__main__
Individual
p180
(dp181
g3
(lp182
I255
aI57
aI83
asg5
F448673.0
sba(i__main__
Individual
p183
(dp184
g3
(lp185
I255
aI54
aI83
asg5
F446299.0
sba(i__main__
Individual
p186
(dp187
g3
(lp188
I255
aI54
aI83
asg5
F447836.0
sba(i__main__
Individual
p189
(dp190
g3
(lp191
I255
aI54
aI83
asg5
F447105.0
sba(i__main__
Individual
p192
(dp193
g3
(lp194
I255
aI54
aI83
asg5
F450739.0
sba(i__main__
Individual
p195
(dp196
g3
(lp197
I255
aI54
aI83
asg5
F448810.0
sba(i__main__
Individual
p198
(dp199
g3
(lp200
I255
aI54
aI83
asg5
F456728.0
sba(i__main__
Individual
p201
(dp202
g3
(lp203
I255
aI54
aI83
asg5
F457875.0
sba(i__main__
Individual
p204
(dp205
g3
(lp206
I255
aI54
aI83
asg5
F460326.0
sba(i__main__
Individual
p207
(dp208
g3
(lp209
I255
aI54
aI83
asg5
F458362.0
sba(i__main__
Individual
p210
(dp211
g3
(lp212
I255
aI54
aI83
asg5
F462220.0
sba(i__main__
Individual
p213
(dp214
g3
(lp215
I255
aI54
aI83
asg5
F457047.0
sba(i__main__
Individual
p216
(dp217
g3
(lp218
I255
aI54
aI83
asg5
F460106.0
sba(i__main__
Individual
p219
(dp220
g3
(lp221
I255
aI54
aI83
asg5
F459593.0
sba(i__main__
Individual
p222
(dp223
g3
(lp224
I255
aI54
aI83
asg5
F457970.0
sba(i__main__
Individual
p225
(dp226
g3
(lp227
I255
aI54
aI83
asg5
F455544.0
sba(i__main__
Individual
p228
(dp229
g3
(lp230
I255
aI54
aI83
asg5
F459695.0
sba(i__main__
Individual
p231
(dp232
g3
(lp233
I255
aI54
aI83
asg5
F458983.0
sba(i__main__
Individual
p234
(dp235
g3
(lp236
I255
aI54
aI83
asg5
F458322.0
sba(i__main__
Individual
p237
(dp238
g3
(lp239
I255
aI54
aI83
asg5
F465392.0
sba(i__main__
Individual
p240
(dp241
g3
(lp242
I255
aI54
aI83
asg5
F469448.0
sba(i__main__
Individual
p243
(dp244
g3
(lp245
I255
aI54
aI83
asg5
F463538.0
sba(i__main__
Individual
p246
(dp247
g3
(lp248
I255
aI54
aI83
asg5
F467185.0
sba(i__main__
Individual
p249
(dp250
g3
(lp251
I255
aI54
aI83
asg5
F498150.0
sba(i__main__
Individual
p252
(dp253
g3
(lp254
I255
aI54
aI83
asg5
F467603.0
sba(i__main__
Individual
p255
(dp256
g3
(lp257
I255
aI54
aI83
asg5
F466982.0
sba(i__main__
Individual
p258
(dp259
g3
(lp260
I255
aI54
aI83
asg5
F470124.0
sba(i__main__
Individual
p261
(dp262
g3
(lp263
I255
aI54
aI83
asg5
F469908.0
sba(i__main__
Individual
p264
(dp265
g3
(lp266
I255
aI54
aI83
asg5
F469034.0
sba(i__main__
Individual
p267
(dp268
g3
(lp269
I255
aI54
aI83
asg5
F467091.0
sba(i__main__
Individual
p270
(dp271
g3
(lp272
I255
aI54
aI83
asg5
F465785.0
sba(i__main__
Individual
p273
(dp274
g3
(lp275
I255
aI54
aI83
asg5
F472331.0
sba(i__main__
Individual
p276
(dp277
g3
(lp278
I255
aI54
aI83
asg5
F468201.0
sba(i__main__
Individual
p279
(dp280
g3
(lp281
I255
aI54
aI83
asg5
F471154.0
sba(i__main__
Individual
p282
(dp283
g3
(lp284
I255
aI54
aI83
asg5
F470250.0
sba(i__main__
Individual
p285
(dp286
g3
(lp287
I255
aI54
aI83
asg5
F469345.0
sba(i__main__
Individual
p288
(dp289
g3
(lp290
I249
aI54
aI83
asg5
F472256.0
sba(i__main__
Individual
p291
(dp292
g3
(lp293
I255
aI52
aI83
asg5
F469113.0
sba(i__main__
Individual
p294
(dp295
g3
(lp296
I255
aI52
aI83
asg5
F470860.0
sba(i__main__
Individual
p297
(dp298
g3
(lp299
I255
aI54
aI83
asg5
F475981.0
sba(i__main__
Individual
p300
(dp301
g3
(lp302
I255
aI52
aI83
asg5
F474222.0
sba(i__main__
Individual
p303
(dp304
g3
(lp305
I255
aI52
aI83
asg5
F469255.0
sba.