(lp0
F1529514.0
aF1539914.0
aF1533393.0
aF1556058.0
aF1532473.0
aF1521916.0
aF1529558.0
aF1531808.0
aF1592650.0
aF1527375.0
a.(lp0
(i__main__
Individual
p1
(dp2
S'genome'
p3
(lp4
I237
aI116
aI82
asS'fitness'
p5
F1529514.0
sba(i__main__
Individual
p6
(dp7
g3
(lp8
I237
aI103
aI82
asg5
F1539914.0
sba(i__main__
Individual
p9
(dp10
g3
(lp11
I237
aI116
aI82
asg5
F1533393.0
sba(i__main__
Individual
p12
(dp13
g3
(lp14
I237
aI116
aI131
asg5
F1556058.0
sba(i__main__
Individual
p15
(dp16
g3
(lp17
I237
aI116
aI82
asg5
F1532473.0
sba(i__main__
Individual
p18
(dp19
g3
(lp20
I91
aI32
aI65
asg5
F1521916.0
sba(i__main__
Individual
p21
(dp22
g3
(lp23
I255
aI116
aI82
asg5
F1529558.0
sba(i__main__
Individual
p24
(dp25
g3
(lp26
I237
aI116
aI82
asg5
F1531808.0
sba(i__main__
Individual
p27
(dp28
g3
(lp29
I226
aI97
aI136
asg5
F1592650.0
sba(i__main__
Individual
p30
(dp31
g3
(lp32
I92
aI249
aI142
asg5
F1527375.0
sba.