(lp0
F2033105.0
aF2136858.0
aF2166405.0
aF2172668.0
aF2170089.0
aF2144586.0
aF2168328.0
aF2213241.0
aF2176509.0
aF2174170.0
aF2148240.0
aF2175449.0
aF2193770.0
aF2266519.0
aF2285286.0
aF2189268.0
aF2287975.0
aF2263643.0
aF2062760.0
aF2042247.0
aF2062552.0
aF2040271.0
aF2056273.0
aF2192074.0
aF2054210.0
aF2039935.0
aF2052089.0
aF2015688.0
aF2051340.0
aF2028045.0
aF2012195.0
aF1990108.0
aF1999218.0
aF2023564.0
aF2021413.0
aF2016688.0
aF2059618.0
aF1922515.0
aF1890706.0
aF1981651.0
aF1864086.0
aF1891090.0
aF1853544.0
aF1886586.0
aF1872784.0
aF1916117.0
aF1868824.0
aF1855153.0
aF1874281.0
aF1844675.0
aF1866281.0
aF1819542.0
aF1844427.0
aF1849678.0
aF1833018.0
aF1901942.0
aF1849631.0
aF1821193.0
aF1824974.0
aF1827444.0
aF1823574.0
aF1882979.0
aF1825517.0
aF1831953.0
aF1791538.0
aF1817505.0
aF1779368.0
aF1767622.0
aF1760400.0
aF1763397.0
aF1759299.0
aF1756171.0
aF1759364.0
aF1743983.0
aF1760689.0
aF1766305.0
aF1757611.0
aF1756930.0
aF1754777.0
aF1764432.0
aF1750684.0
aF1794896.0
aF1749657.0
aF1784566.0
aF1748316.0
aF1747987.0
aF1777788.0
aF1745090.0
aF1734817.0
aF1739721.0
aF1741234.0
aF1726749.0
aF1733850.0
aF1737385.0
aF1736541.0
aF1734711.0
aF1735001.0
aF1762300.0
aF1748245.0
aF1730328.0
aF1743089.0
a.(lp0
(i__main__
Individual
p1
(dp2
S'genome'
p3
(lp4
I195
aI100
aI159
asS'fitness'
p5
F2033105.0
sba(i__main__
Individual
p6
(dp7
g3
(lp8
I195
aI100
aI159
asg5
F2136858.0
sba(i__main__
Individual
p9
(dp10
g3
(lp11
I195
aI100
aI159
asg5
F2166405.0
sba(i__main__
Individual
p12
(dp13
g3
(lp14
I195
aI100
aI159
asg5
F2172668.0
sba(i__main__
Individual
p15
(dp16
g3
(lp17
I195
aI100
aI159
asg5
F2170089.0
sba(i__main__
Individual
p18
(dp19
g3
(lp20
I195
aI100
aI159
asg5
F2144586.0
sba(i__main__
Individual
p21
(dp22
g3
(lp23
I195
aI100
aI159
asg5
F2168328.0
sba(i__main__
Individual
p24
(dp25
g3
(lp26
I195
aI100
aI159
asg5
F2213241.0
sba(i__main__
Individual
p27
(dp28
g3
(lp29
I195
aI100
aI159
asg5
F2176509.0
sba(i__main__
Individual
p30
(dp31
g3
(lp32
I195
aI100
aI159
asg5
F2174170.0
sba(i__main__
Individual
p33
(dp34
g3
(lp35
I195
aI100
aI159
asg5
F2148240.0
sba(i__main__
Individual
p36
(dp37
g3
(lp38
I195
aI100
aI159
asg5
F2175449.0
sba(i__main__
Individual
p39
(dp40
g3
(lp41
I195
aI100
aI159
asg5
F2193770.0
sba(i__main__
Individual
p42
(dp43
g3
(lp44
I195
aI100
aI159
asg5
F2266519.0
sba(i__main__
Individual
p45
(dp46
g3
(lp47
I195
aI100
aI159
asg5
F2285286.0
sba(i__main__
Individual
p48
(dp49
g3
(lp50
I195
aI100
aI159
asg5
F2189268.0
sba(i__main__
Individual
p51
(dp52
g3
(lp53
I195
aI100
aI159
asg5
F2287975.0
sba(i__main__
Individual
p54
(dp55
g3
(lp56
I195
aI100
aI159
asg5
F2263643.0
sba(i__main__
Individual
p57
(dp58
g3
(lp59
I195
aI100
aI159
asg5
F2062760.0
sba(i__main__
Individual
p60
(dp61
g3
(lp62
I195
aI100
aI159
asg5
F2042247.0
sba(i__main__
Individual
p63
(dp64
g3
(lp65
I195
aI100
aI159
asg5
F2062552.0
sba(i__main__
Individual
p66
(dp67
g3
(lp68
I195
aI100
aI159
asg5
F2040271.0
sba(i__main__
Individual
p69
(dp70
g3
(lp71
I195
aI100
aI159
asg5
F2056273.0
sba(i__main__
Individual
p72
(dp73
g3
(lp74
I239
aI100
aI159
asg5
F2192074.0
sba(i__main__
Individual
p75
(dp76
g3
(lp77
I195
aI100
aI159
asg5
F2054210.0
sba(i__main__
Individual
p78
(dp79
g3
(lp80
I195
aI100
aI159
asg5
F2039935.0
sba(i__main__
Individual
p81
(dp82
g3
(lp83
I195
aI100
aI159
asg5
F2052089.0
sba(i__main__
Individual
p84
(dp85
g3
(lp86
I195
aI100
aI159
asg5
F2015688.0
sba(i__main__
Individual
p87
(dp88
g3
(lp89
I195
aI100
aI159
asg5
F2051340.0
sba(i__main__
Individual
p90
(dp91
g3
(lp92
I195
aI102
aI159
asg5
F2028045.0
sba(i__main__
Individual
p93
(dp94
g3
(lp95
I195
aI100
aI159
asg5
F2012195.0
sba(i__main__
Individual
p96
(dp97
g3
(lp98
I195
aI100
aI159
asg5
F1990108.0
sba(i__main__
Individual
p99
(dp100
g3
(lp101
I195
aI100
aI159
asg5
F1999218.0
sba(i__main__
Individual
p102
(dp103
g3
(lp104
I195
aI100
aI159
asg5
F2023564.0
sba(i__main__
Individual
p105
(dp106
g3
(lp107
I195
aI100
aI159
asg5
F2021413.0
sba(i__main__
Individual
p108
(dp109
g3
(lp110
I195
aI100
aI159
asg5
F2016688.0
sba(i__main__
Individual
p111
(dp112
g3
(lp113
I240
aI100
aI159
asg5
F2059618.0
sba(i__main__
Individual
p114
(dp115
g3
(lp116
I195
aI100
aI159
asg5
F1922515.0
sba(i__main__
Individual
p117
(dp118
g3
(lp119
I195
aI100
aI159
asg5
F1890706.0
sba(i__main__
Individual
p120
(dp121
g3
(lp122
I237
aI100
aI159
asg5
F1981651.0
sba(i__main__
Individual
p123
(dp124
g3
(lp125
I195
aI100
aI159
asg5
F1864086.0
sba(i__main__
Individual
p126
(dp127
g3
(lp128
I195
aI100
aI159
asg5
F1891090.0
sba(i__main__
Individual
p129
(dp130
g3
(lp131
I195
aI100
aI159
asg5
F1853544.0
sba(i__main__
Individual
p132
(dp133
g3
(lp134
I195
aI100
aI135
asg5
F1886586.0
sba(i__main__
Individual
p135
(dp136
g3
(lp137
I195
aI100
aI159
asg5
F1872784.0
sba(i__main__
Individual
p138
(dp139
g3
(lp140
I195
aI100
aI149
asg5
F1916117.0
sba(i__main__
Individual
p141
(dp142
g3
(lp143
I195
aI100
aI159
asg5
F1868824.0
sba(i__main__
Individual
p144
(dp145
g3
(lp146
I195
aI119
aI159
asg5
F1855153.0
sba(i__main__
Individual
p147
(dp148
g3
(lp149
I195
aI100
aI159
asg5
F1874281.0
sba(i__main__
Individual
p150
(dp151
g3
(lp152
I195
aI100
aI159
asg5
F1844675.0
sba(i__main__
Individual
p153
(dp154
g3
(lp155
I195
aI100
aI159
asg5
F1866281.0
sba(i__main__
Individual
p156
(dp157
g3
(lp158
I195
aI100
aI159
asg5
F1819542.0
sba(i__main__
Individual
p159
(dp160
g3
(lp161
I195
aI100
aI159
asg5
F1844427.0
sba(i__main__
Individual
p162
(dp163
g3
(lp164
I205
aI100
aI159
asg5
F1849678.0
sba(i__main__
Individual
p165
(dp166
g3
(lp167
I195
aI100
aI159
asg5
F1833018.0
sba(i__main__
Individual
p168
(dp169
g3
(lp170
I231
aI100
aI159
asg5
F1901942.0
sba(i__main__
Individual
p171
(dp172
g3
(lp173
I195
aI100
aI159
asg5
F1849631.0
sba(i__main__
Individual
p174
(dp175
g3
(lp176
I195
aI100
aI159
asg5
F1821193.0
sba(i__main__
Individual
p177
(dp178
g3
(lp179
I195
aI100
aI159
asg5
F1824974.0
sba(i__main__
Individual
p180
(dp181
g3
(lp182
I195
aI100
aI159
asg5
F1827444.0
sba(i__main__
Individual
p183
(dp184
g3
(lp185
I195
aI100
aI159
asg5
F1823574.0
sba(i__main__
Individual
p186
(dp187
g3
(lp188
I226
aI100
aI159
asg5
F1882979.0
sba(i__main__
Individual
p189
(dp190
g3
(lp191
I195
aI100
aI159
asg5
F1825517.0
sba(i__main__
Individual
p192
(dp193
g3
(lp194
I195
aI100
aI140
asg5
F1831953.0
sba(i__main__
Individual
p195
(dp196
g3
(lp197
I195
aI100
aI159
asg5
F1791538.0
sba(i__main__
Individual
p198
(dp199
g3
(lp200
I222
aI100
aI159
asg5
F1817505.0
sba(i__main__
Individual
p201
(dp202
g3
(lp203
I195
aI100
aI159
asg5
F1779368.0
sba(i__main__
Individual
p204
(dp205
g3
(lp206
I195
aI100
aI159
asg5
F1767622.0
sba(i__main__
Individual
p207
(dp208
g3
(lp209
I195
aI100
aI159
asg5
F1760400.0
sba(i__main__
Individual
p210
(dp211
g3
(lp212
I195
aI100
aI159
asg5
F1763397.0
sba(i__main__
Individual
p213
(dp214
g3
(lp215
I195
aI100
aI159
asg5
F1759299.0
sba(i__main__
Individual
p216
(dp217
g3
(lp218
I195
aI100
aI159
asg5
F1756171.0
sba(i__main__
Individual
p219
(dp220
g3
(lp221
I195
aI100
aI159
asg5
F1759364.0
sba(i__main__
Individual
p222
(dp223
g3
(lp224
I195
aI100
aI159
asg5
F1743983.0
sba(i__main__
Individual
p225
(dp226
g3
(lp227
I195
aI100
aI159
asg5
F1760689.0
sba(i__main__
Individual
p228
(dp229
g3
(lp230
I195
aI100
aI159
asg5
F1766305.0
sba(i__main__
Individual
p231
(dp232
g3
(lp233
I195
aI100
aI159
asg5
F1757611.0
sba(i__main__
Individual
p234
(dp235
g3
(lp236
I195
aI100
aI159
asg5
F1756930.0
sba(i__main__
Individual
p237
(dp238
g3
(lp239
I195
aI100
aI159
asg5
F1754777.0
sba(i__main__
Individual
p240
(dp241
g3
(lp242
I195
aI113
aI159
asg5
F1764432.0
sba(i__main__
Individual
p243
(dp244
g3
(lp245
I195
aI100
aI159
asg5
F1750684.0
sba(i__main__
Individual
p246
(dp247
g3
(lp248
I232
aI100
aI159
asg5
F1794896.0
sba(i__main__
Individual
p249
(dp250
g3
(lp251
I195
aI100
aI159
asg5
F1749657.0
sba(i__main__
Individual
p252
(dp253
g3
(lp254
I195
aI100
aI138
asg5
F1784566.0
sba(i__main__
Individual
p255
(dp256
g3
(lp257
I195
aI100
aI159
asg5
F1748316.0
sba(i__main__
Individual
p258
(dp259
g3
(lp260
I195
aI100
aI159
asg5
F1747987.0
sba(i__main__
Individual
p261
(dp262
g3
(lp263
I195
aI109
aI159
asg5
F1777788.0
sba(i__main__
Individual
p264
(dp265
g3
(lp266
I195
aI100
aI159
asg5
F1745090.0
sba(i__main__
Individual
p267
(dp268
g3
(lp269
I195
aI100
aI159
asg5
F1734817.0
sba(i__main__
Individual
p270
(dp271
g3
(lp272
I195
aI100
aI159
asg5
F1739721.0
sba(i__main__
Individual
p273
(dp274
g3
(lp275
I195
aI100
aI159
asg5
F1741234.0
sba(i__main__
Individual
p276
(dp277
g3
(lp278
I195
aI100
aI159
asg5
F1726749.0
sba(i__main__
Individual
p279
(dp280
g3
(lp281
I195
aI100
aI159
asg5
F1733850.0
sba(i__main__
Individual
p282
(dp283
g3
(lp284
I195
aI100
aI159
asg5
F1737385.0
sba(i__main__
Individual
p285
(dp286
g3
(lp287
I195
aI100
aI159
asg5
F1736541.0
sba(i__main__
Individual
p288
(dp289
g3
(lp290
I195
aI100
aI159
asg5
F1734711.0
sba(i__main__
Individual
p291
(dp292
g3
(lp293
I195
aI100
aI159
asg5
F1735001.0
sba(i__main__
Individual
p294
(dp295
g3
(lp296
I195
aI110
aI159
asg5
F1762300.0
sba(i__main__
Individual
p297
(dp298
g3
(lp299
I195
aI100
aI159
asg5
F1748245.0
sba(i__main__
Individual
p300
(dp301
g3
(lp302
I195
aI100
aI159
asg5
F1730328.0
sba(i__main__
Individual
p303
(dp304
g3
(lp305
I195
aI100
aI159
asg5
F1743089.0
sba.