(lp0
F1717113.0
aF1710738.0
aF1718688.0
aF1737650.0
a.(lp0
(i__main__
Individual
p1
(dp2
S'genome'
p3
(lp4
I57
aI248
aI218
aI184
aI59
aI63
aI87
aI154
aI26
aI105
aI34
aI111
aI220
aI40
aI60
asS'fitness'
p5
F1717113.0
sba(i__main__
Individual
p6
(dp7
g3
(lp8
I57
aI248
aI218
aI184
aI59
aI63
aI87
aI154
aI26
aI105
aI34
aI111
aI220
aI40
aI60
asg5
F1710738.0
sba(i__main__
Individual
p9
(dp10
g3
(lp11
I57
aI248
aI218
aI184
aI59
aI63
aI87
aI154
aI26
aI105
aI34
aI111
aI220
aI40
aI60
asg5
F1718688.0
sba(i__main__
Individual
p12
(dp13
g3
(lp14
I57
aI248
aI218
aI184
aI59
aI63
aI87
aI154
aI26
aI105
aI34
aI111
aI220
aI40
aI60
asg5
F1737650.0
sba.