(lp0
F315423.0
aF320212.0
aF326290.0
aF326079.0
aF326379.0
aF326731.0
aF327833.0
aF325649.0
aF326848.0
aF327679.0
a.(lp0
(i__main__
Individual
p1
(dp2
S'genome'
p3
(lp4
I153
aI92
aI80
aI126
aI240
aI32
aI184
aI179
aI195
aI44
aI56
aI135
aI186
aI44
aI167
asS'fitness'
p5
F315423.0
sba(i__main__
Individual
p6
(dp7
g3
(lp8
I229
aI236
aI118
aI244
aI44
aI167
aI126
aI0
aI2
aI125
aI39
aI199
aI238
aI97
aI130
asg5
F320212.0
sba(i__main__
Individual
p9
(dp10
g3
(lp11
I229
aI236
aI118
aI244
aI44
aI167
aI126
aI0
aI2
aI98
aI39
aI171
aI238
aI97
aI130
asg5
F326290.0
sba(i__main__
Individual
p12
(dp13
g3
(lp14
I229
aI236
aI118
aI244
aI44
aI167
aI126
aI0
aI2
aI98
aI39
aI171
aI238
aI97
aI130
asg5
F326079.0
sba(i__main__
Individual
p15
(dp16
g3
(lp17
I229
aI236
aI118
aI244
aI44
aI167
aI126
aI0
aI2
aI98
aI0
aI171
aI238
aI97
aI130
asg5
F326379.0
sba(i__main__
Individual
p18
(dp19
g3
(lp20
I229
aI185
aI118
aI244
aI44
aI167
aI50
aI0
aI2
aI98
aI39
aI168
aI238
aI97
aI130
asg5
F326731.0
sba(i__main__
Individual
p21
(dp22
g3
(lp23
I229
aI185
aI118
aI244
aI44
aI167
aI50
aI36
aI2
aI98
aI39
aI168
aI238
aI97
aI130
asg5
F327833.0
sba(i__main__
Individual
p24
(dp25
g3
(lp26
I229
aI185
aI118
aI231
aI44
aI167
aI53
aI0
aI2
aI98
aI39
aI168
aI238
aI97
aI130
asg5
F325649.0
sba(i__main__
Individual
p27
(dp28
g3
(lp29
I229
aI185
aI118
aI244
aI44
aI167
aI50
aI36
aI2
aI98
aI39
aI168
aI204
aI97
aI130
asg5
F326848.0
sba(i__main__
Individual
p30
(dp31
g3
(lp32
I218
aI185
aI118
aI231
aI92
aI167
aI53
aI26
aI2
aI98
aI39
aI168
aI238
aI97
aI130
asg5
F327679.0
sba.