(lp0
F1541230.0
aF1557590.0
aF1488336.0
aF2668532.0
a.(lp0
(i__main__
Individual
p1
(dp2
S'genome'
p3
(lp4
I229
aI7
aI184
asS'fitness'
p5
F1541230.0
sba(i__main__
Individual
p6
(dp7
g3
(lp8
I229
aI35
aI184
asg5
F1557590.0
sba(i__main__
Individual
p9
(dp10
g3
(lp11
I52
aI211
aI130
asg5
F1488336.0
sba(i__main__
Individual
p12
(dp13
g3
(lp14
I255
aI53
aI117
asg5
F2668532.0
sba.