(lp0
F97872.0
aF54364.0
aF112634.0
aF112776.0
aF109968.0
aF102418.0
aF102622.0
aF110410.0
aF101052.0
aF103088.0
aF104712.0
aF105505.0
aF98685.0
aF101915.0
aF101722.0
aF102114.0
aF100943.0
aF98844.0
aF99574.0
aF99989.0
aF101471.0
aF107157.0
aF108210.0
aF104289.0
aF55641.0
aF95869.0
aF99731.0
aF106088.0
aF106000.0
aF103570.0
aF103234.0
aF99369.0
aF102166.0
aF99454.0
aF100991.0
aF103736.0
aF109210.0
aF101351.0
aF105722.0
aF99348.0
aF102879.0
aF96551.0
aF105997.0
aF99973.0
aF104773.0
aF103309.0
aF103057.0
aF97862.0
aF104998.0
aF106965.0
aF99073.0
aF102749.0
aF107866.0
aF110177.0
aF105935.0
aF100502.0
aF108070.0
aF102062.0
aF103355.0
aF101670.0
aF101057.0
aF100969.0
aF101593.0
aF102075.0
aF104032.0
aF109271.0
aF99509.0
aF98802.0
aF101957.0
aF104978.0
aF102402.0
aF98036.0
aF102665.0
aF100796.0
aF102853.0
aF102776.0
aF102437.0
aF102711.0
aF101632.0
aF105296.0
aF101420.0
aF101056.0
aF111100.0
aF100359.0
aF105693.0
aF104155.0
aF103452.0
aF102273.0
aF104314.0
aF98923.0
aF101115.0
aF103949.0
aF102555.0
aF102630.0
aF104400.0
aF102047.0
aF101590.0
aF104411.0
aF102803.0
aF103972.0
aF106351.0
a.(lp0
(i__main__
Individual
p1
(dp2
S'genome'
p3
(lp4
I203
aI100
aI130
asS'fitness'
p5
F97872.0
sba(i__main__
Individual
p6
(dp7
g3
(lp8
I199
aI179
aI239
asg5
F54364.0
sba(i__main__
Individual
p9
(dp10
g3
(lp11
I203
aI42
aI130
asg5
F112634.0
sba(i__main__
Individual
p12
(dp13
g3
(lp14
I203
aI86
aI130
asg5
F112776.0
sba(i__main__
Individual
p15
(dp16
g3
(lp17
I255
aI100
aI130
asg5
F109968.0
sba(i__main__
Individual
p18
(dp19
g3
(lp20
I203
aI100
aI130
asg5
F102418.0
sba(i__main__
Individual
p21
(dp22
g3
(lp23
I203
aI100
aI130
asg5
F102622.0
sba(i__main__
Individual
p24
(dp25
g3
(lp26
I255
aI100
aI130
asg5
F110410.0
sba(i__main__
Individual
p27
(dp28
g3
(lp29
I203
aI100
aI130
asg5
F101052.0
sba(i__main__
Individual
p30
(dp31
g3
(lp32
I203
aI100
aI130
asg5
F103088.0
sba(i__main__
Individual
p33
(dp34
g3
(lp35
I203
aI100
aI130
asg5
F104712.0
sba(i__main__
Individual
p36
(dp37
g3
(lp38
I217
aI100
aI130
asg5
F105505.0
sba(i__main__
Individual
p39
(dp40
g3
(lp41
I203
aI100
aI130
asg5
F98685.0
sba(i__main__
Individual
p42
(dp43
g3
(lp44
I203
aI100
aI130
asg5
F101915.0
sba(i__main__
Individual
p45
(dp46
g3
(lp47
I203
aI100
aI130
asg5
F101722.0
sba(i__main__
Individual
p48
(dp49
g3
(lp50
I203
aI100
aI130
asg5
F102114.0
sba(i__main__
Individual
p51
(dp52
g3
(lp53
I203
aI100
aI130
asg5
F100943.0
sba(i__main__
Individual
p54
(dp55
g3
(lp56
I203
aI100
aI130
asg5
F98844.0
sba(i__main__
Individual
p57
(dp58
g3
(lp59
I203
aI100
aI130
asg5
F99574.0
sba(i__main__
Individual
p60
(dp61
g3
(lp62
I203
aI100
aI130
asg5
F99989.0
sba(i__main__
Individual
p63
(dp64
g3
(lp65
I203
aI100
aI130
asg5
F101471.0
sba(i__main__
Individual
p66
(dp67
g3
(lp68
I255
aI100
aI130
asg5
F107157.0
sba(i__main__
Individual
p69
(dp70
g3
(lp71
I255
aI100
aI130
asg5
F108210.0
sba(i__main__
Individual
p72
(dp73
g3
(lp74
I203
aI100
aI130
asg5
F104289.0
sba(i__main__
Individual
p75
(dp76
g3
(lp77
I37
aI17
aI242
asg5
F55641.0
sba(i__main__
Individual
p78
(dp79
g3
(lp80
I203
aI100
aI130
asg5
F95869.0
sba(i__main__
Individual
p81
(dp82
g3
(lp83
I203
aI100
aI130
asg5
F99731.0
sba(i__main__
Individual
p84
(dp85
g3
(lp86
I203
aI62
aI160
asg5
F106088.0
sba(i__main__
Individual
p87
(dp88
g3
(lp89
I203
aI100
aI130
asg5
F106000.0
sba(i__main__
Individual
p90
(dp91
g3
(lp92
I203
aI100
aI130
asg5
F103570.0
sba(i__main__
Individual
p93
(dp94
g3
(lp95
I203
aI100
aI130
asg5
F103234.0
sba(i__main__
Individual
p96
(dp97
g3
(lp98
I203
aI100
aI127
asg5
F99369.0
sba(i__main__
Individual
p99
(dp100
g3
(lp101
I203
aI94
aI130
asg5
F102166.0
sba(i__main__
Individual
p102
(dp103
g3
(lp104
I203
aI100
aI130
asg5
F99454.0
sba(i__main__
Individual
p105
(dp106
g3
(lp107
I203
aI100
aI130
asg5
F100991.0
sba(i__main__
Individual
p108
(dp109
g3
(lp110
I203
aI100
aI130
asg5
F103736.0
sba(i__main__
Individual
p111
(dp112
g3
(lp113
I255
aI100
aI130
asg5
F109210.0
sba(i__main__
Individual
p114
(dp115
g3
(lp116
I203
aI100
aI130
asg5
F101351.0
sba(i__main__
Individual
p117
(dp118
g3
(lp119
I241
aI100
aI130
asg5
F105722.0
sba(i__main__
Individual
p120
(dp121
g3
(lp122
I203
aI100
aI130
asg5
F99348.0
sba(i__main__
Individual
p123
(dp124
g3
(lp125
I203
aI100
aI130
asg5
F102879.0
sba(i__main__
Individual
p126
(dp127
g3
(lp128
I203
aI100
aI130
asg5
F96551.0
sba(i__main__
Individual
p129
(dp130
g3
(lp131
I229
aI100
aI130
asg5
F105997.0
sba(i__main__
Individual
p132
(dp133
g3
(lp134
I203
aI100
aI130
asg5
F99973.0
sba(i__main__
Individual
p135
(dp136
g3
(lp137
I203
aI100
aI130
asg5
F104773.0
sba(i__main__
Individual
p138
(dp139
g3
(lp140
I203
aI100
aI130
asg5
F103309.0
sba(i__main__
Individual
p141
(dp142
g3
(lp143
I203
aI100
aI130
asg5
F103057.0
sba(i__main__
Individual
p144
(dp145
g3
(lp146
I203
aI100
aI130
asg5
F97862.0
sba(i__main__
Individual
p147
(dp148
g3
(lp149
I203
aI100
aI130
asg5
F104998.0
sba(i__main__
Individual
p150
(dp151
g3
(lp152
I220
aI100
aI130
asg5
F106965.0
sba(i__main__
Individual
p153
(dp154
g3
(lp155
I203
aI100
aI130
asg5
F99073.0
sba(i__main__
Individual
p156
(dp157
g3
(lp158
I203
aI100
aI130
asg5
F102749.0
sba(i__main__
Individual
p159
(dp160
g3
(lp161
I203
aI97
aI130
asg5
F107866.0
sba(i__main__
Individual
p162
(dp163
g3
(lp164
I244
aI100
aI130
asg5
F110177.0
sba(i__main__
Individual
p165
(dp166
g3
(lp167
I203
aI100
aI130
asg5
F105935.0
sba(i__main__
Individual
p168
(dp169
g3
(lp170
I203
aI100
aI130
asg5
F100502.0
sba(i__main__
Individual
p171
(dp172
g3
(lp173
I247
aI100
aI130
asg5
F108070.0
sba(i__main__
Individual
p174
(dp175
g3
(lp176
I203
aI100
aI130
asg5
F102062.0
sba(i__main__
Individual
p177
(dp178
g3
(lp179
I203
aI100
aI130
asg5
F103355.0
sba(i__main__
Individual
p180
(dp181
g3
(lp182
I203
aI100
aI130
asg5
F101670.0
sba(i__main__
Individual
p183
(dp184
g3
(lp185
I203
aI98
aI130
asg5
F101057.0
sba(i__main__
Individual
p186
(dp187
g3
(lp188
I203
aI100
aI130
asg5
F100969.0
sba(i__main__
Individual
p189
(dp190
g3
(lp191
I203
aI100
aI130
asg5
F101593.0
sba(i__main__
Individual
p192
(dp193
g3
(lp194
I203
aI100
aI130
asg5
F102075.0
sba(i__main__
Individual
p195
(dp196
g3
(lp197
I203
aI100
aI130
asg5
F104032.0
sba(i__main__
Individual
p198
(dp199
g3
(lp200
I255
aI100
aI130
asg5
F109271.0
sba(i__main__
Individual
p201
(dp202
g3
(lp203
I203
aI100
aI130
asg5
F99509.0
sba(i__main__
Individual
p204
(dp205
g3
(lp206
I203
aI100
aI130
asg5
F98802.0
sba(i__main__
Individual
p207
(dp208
g3
(lp209
I203
aI100
aI143
asg5
F101957.0
sba(i__main__
Individual
p210
(dp211
g3
(lp212
I203
aI100
aI130
asg5
F104978.0
sba(i__main__
Individual
p213
(dp214
g3
(lp215
I203
aI100
aI130
asg5
F102402.0
sba(i__main__
Individual
p216
(dp217
g3
(lp218
I203
aI100
aI130
asg5
F98036.0
sba(i__main__
Individual
p219
(dp220
g3
(lp221
I203
aI100
aI130
asg5
F102665.0
sba(i__main__
Individual
p222
(dp223
g3
(lp224
I203
aI100
aI130
asg5
F100796.0
sba(i__main__
Individual
p225
(dp226
g3
(lp227
I203
aI100
aI130
asg5
F102853.0
sba(i__main__
Individual
p228
(dp229
g3
(lp230
I203
aI100
aI130
asg5
F102776.0
sba(i__main__
Individual
p231
(dp232
g3
(lp233
I203
aI100
aI130
asg5
F102437.0
sba(i__main__
Individual
p234
(dp235
g3
(lp236
I203
aI100
aI171
asg5
F102711.0
sba(i__main__
Individual
p237
(dp238
g3
(lp239
I203
aI100
aI130
asg5
F101632.0
sba(i__main__
Individual
p240
(dp241
g3
(lp242
I203
aI100
aI130
asg5
F105296.0
sba(i__main__
Individual
p243
(dp244
g3
(lp245
I203
aI100
aI130
asg5
F101420.0
sba(i__main__
Individual
p246
(dp247
g3
(lp248
I203
aI100
aI130
asg5
F101056.0
sba(i__main__
Individual
p249
(dp250
g3
(lp251
I203
aI64
aI130
asg5
F111100.0
sba(i__main__
Individual
p252
(dp253
g3
(lp254
I203
aI100
aI130
asg5
F100359.0
sba(i__main__
Individual
p255
(dp256
g3
(lp257
I203
aI100
aI143
asg5
F105693.0
sba(i__main__
Individual
p258
(dp259
g3
(lp260
I203
aI100
aI130
asg5
F104155.0
sba(i__main__
Individual
p261
(dp262
g3
(lp263
I203
aI100
aI130
asg5
F103452.0
sba(i__main__
Individual
p264
(dp265
g3
(lp266
I203
aI100
aI145
asg5
F102273.0
sba(i__main__
Individual
p267
(dp268
g3
(lp269
I203
aI100
aI130
asg5
F104314.0
sba(i__main__
Individual
p270
(dp271
g3
(lp272
I203
aI100
aI130
asg5
F98923.0
sba(i__main__
Individual
p273
(dp274
g3
(lp275
I203
aI100
aI130
asg5
F101115.0
sba(i__main__
Individual
p276
(dp277
g3
(lp278
I203
aI100
aI130
asg5
F103949.0
sba(i__main__
Individual
p279
(dp280
g3
(lp281
I203
aI100
aI130
asg5
F102555.0
sba(i__main__
Individual
p282
(dp283
g3
(lp284
I203
aI100
aI130
asg5
F102630.0
sba(i__main__
Individual
p285
(dp286
g3
(lp287
I203
aI100
aI130
asg5
F104400.0
sba(i__main__
Individual
p288
(dp289
g3
(lp290
I203
aI100
aI130
asg5
F102047.0
sba(i__main__
Individual
p291
(dp292
g3
(lp293
I203
aI100
aI130
asg5
F101590.0
sba(i__main__
Individual
p294
(dp295
g3
(lp296
I203
aI100
aI130
asg5
F104411.0
sba(i__main__
Individual
p297
(dp298
g3
(lp299
I203
aI100
aI130
asg5
F102803.0
sba(i__main__
Individual
p300
(dp301
g3
(lp302
I203
aI100
aI130
asg5
F103972.0
sba(i__main__
Individual
p303
(dp304
g3
(lp305
I203
aI100
aI130
asg5
F106351.0
sba.