(lp0
F1528243.0
aF1528557.0
aF1528012.0
aF1528219.0
aF1528223.0
aF1528686.0
aF1528473.0
aF1528329.0
aF1528618.0
aF1528344.0
a.(lp0
(i__main__
Individual
p1
(dp2
S'genome'
p3
(lp4
I10
aI113
aI179
asS'fitness'
p5
F1528243.0
sba(i__main__
Individual
p6
(dp7
g3
(lp8
I198
aI196
aI5
asg5
F1528557.0
sba(i__main__
Individual
p9
(dp10
g3
(lp11
I45
aI241
aI118
asg5
F1528012.0
sba(i__main__
Individual
p12
(dp13
g3
(lp14
I10
aI113
aI179
asg5
F1528219.0
sba(i__main__
Individual
p15
(dp16
g3
(lp17
I4
aI146
aI72
asg5
F1528223.0
sba(i__main__
Individual
p18
(dp19
g3
(lp20
I10
aI113
aI115
asg5
F1528686.0
sba(i__main__
Individual
p21
(dp22
g3
(lp23
I10
aI113
aI179
asg5
F1528473.0
sba(i__main__
Individual
p24
(dp25
g3
(lp26
I10
aI113
aI179
asg5
F1528329.0
sba(i__main__
Individual
p27
(dp28
g3
(lp29
I15
aI113
aI255
asg5
F1528618.0
sba(i__main__
Individual
p30
(dp31
g3
(lp32
I42
aI213
aI209
asg5
F1528344.0
sba.