(lp0
F313492.0
aF314487.0
a.(lp0
(i__main__
Individual
p1
(dp2
S'genome'
p3
(lp4
I71
aI21
aI153
aI139
aI194
aI54
aI5
aI169
aI89
aI74
aI72
aI173
aI68
aI252
aI85
asS'fitness'
p5
F313492.0
sba(i__main__
Individual
p6
(dp7
g3
(lp8
I147
aI185
aI149
aI186
aI135
aI149
aI100
aI20
aI24
aI179
aI230
aI0
aI70
aI240
aI173
asg5
F314487.0
sba.