(lp0
F110893.0
aF122500.0
aF112345.0
aF116996.0
a.(lp0
(i__main__
Individual
p1
(dp2
S'genome'
p3
(lp4
I139
aI2
aI216
asS'fitness'
p5
F110893.0
sba(i__main__
Individual
p6
(dp7
g3
(lp8
I139
aI2
aI216
asg5
F122500.0
sba(i__main__
Individual
p9
(dp10
g3
(lp11
I139
aI2
aI216
asg5
F112345.0
sba(i__main__
Individual
p12
(dp13
g3
(lp14
I139
aI2
aI216
asg5
F116996.0
sba.