(lp0
(lp1
F1443460.0
aF1454527.0
aF1472213.0
aF1472576.0
aF1475357.0
aF1472770.0
aF1476063.0
aF1478055.0
aF1469074.0
aF1466936.0
aa(lp2
F1477830.0
aF1473796.5
aF1471555.5
aF1466540.0
aF1476228.5
aF1464747.0
aF1460433.0
aF1463828.0
aF1460847.5
aF1460755.5
aa(lp3
F1460467.0
aF1460223.0
aF1449571.5
aF1440804.5
aF1440438.0
aF1440072.5
aF1444204.5
aF1443062.5
aF1443248.5
aF1442942.5
aa(lp4
F1443400.5
aF1438221.0
aF1442564.0
aF1443139.5
aF1443691.5
aF1443676.0
aF1440153.5
aF1439338.5
aF1442873.5
aF1445732.0
aa(lp5
F1443253.5
aF1483007.0
aF1440366.5
aF1443508.5
aF1442748.0
aF1504768.5
aF1442491.5
aF1442721.5
aF1441955.5
aF1442542.5
aa(lp6
F1442941.5
aF1443037.0
aF1438368.5
aF1472962.0
aF1476528.5
aF1468311.0
aF1467156.0
aF1474662.5
aF1468760.0
aF1471660.5
aa(lp7
F1474889.0
aF1473272.5
aF1470281.0
aF1473866.0
aF1474034.0
aF1471773.0
aF1473799.5
aF1475314.0
aF1473850.0
aF1475937.0
aa(lp8
F1476608.0
aF1474752.0
aF1471247.5
aF1475551.5
aF1474782.0
aF1475103.5
aF1475459.0
aF1471672.5
aF1461783.5
aF1448309.5
aa(lp9
F1437555.5
aF1440337.0
aF1441634.0
aF1437624.5
aF1448235.0
aF1449869.5
aF1446870.5
aF1446195.5
aF1462436.0
aF1444378.0
aa.(lp0
cnumpy.core.multiarray
scalar
p1
(cnumpy
dtype
p2
(S'f8'
p3
I0
I1
tp4
Rp5
(I3
S'<'
p6
NNNI-1
I-1
I0
tp7
bS'\x00\x00\x00\x00\x84\x066A'
p8
tp9
Rp10
ag1
(g5
S'\x00\x00\x00\x00\xd1H6A'
p11
tp12
Rp13
ag1
(g5
S'\x00\x00\x00\x80H\xf95A'
p14
tp15
Rp16
ag1
(g5
S'\x00\x00\x00\x00\r\xf25A'
p17
tp18
Rp19
ag1
(g5
S'\x00\x00\x00\x80n\xfa5A'
p20
tp21
Rp22
ag1
(g5
S'\x00\x00\x00\x80\xa0\xf25A'
p23
tp24
Rp25
ag1
(g5
S'\x00\x00\x00\x00Io6A'
p26
tp27
Rp28
ag1
(g5
S'\x00\x00\x00\x80u\x196A'
p29
tp30
Rp31
ag1
(g5
S'\x00\x00\x00\x80s\xef5A'
p32
tp33
Rp34
a.(lp0
cnumpy.core.multiarray
scalar
p1
(cnumpy
dtype
p2
(S'f8'
p3
I0
I1
tp4
Rp5
(I3
S'<'
p6
NNNI-1
I-1
I0
tp7
bS'\x00\x00\x00\x80Nd6A'
p8
tp9
Rp10
ag1
(g5
S'\x00\x00\x00\xa0XM6A'
p11
tp12
Rp13
ag1
(g5
S'\x00\x00\x00\x00;\xfe5A'
p14
tp15
Rp16
ag1
(g5
S'\x00\x00\x00 \xf4\xfb5A'
p17
tp18
Rp19
ag1
(g5
S'\x00\x00\x00@\xc8\x026A'
p20
tp21
Rp22
ag1
(g5
S'\x00\x00\x00\xc0j\x1c6A'
p23
tp24
Rp25
ag1
(g5
S'\x00\x00\x00@|{6A'
p26
tp27
Rp28
ag1
(g5
S'\x00\x00\x00\xc0ys6A'
p29
tp30
Rp31
ag1
(g5
S'\x00\x00\x00@\x95\xfb5A'
p32
tp33
Rp34
a.(lp0
cnumpy.core.multiarray
scalar
p1
(cnumpy
dtype
p2
(S'f8'
p3
I0
I1
tp4
Rp5
(I3
S'<'
p6
NNNI-1
I-1
I0
tp7
bS'\x00\x00\x00\x80\x8aw6A'
p8
tp9
Rp10
ag1
(g5
S'\x00\x00\x00\x80+]6A'
p11
tp12
Rp13
ag1
(g5
S'\x00\x00\x00\x80S\x056A'
p14
tp15
Rp16
ag1
(g5
S'\x00\x00\x00\x80\xbe\x046A'
p17
tp18
Rp19
ag1
(g5
S'\x00\x00\x00\xc0\xae\x036A'
p20
tp21
Rp22
ag1
(g5
S'\x00\x00\x00\x80wh6A'
p23
tp24
Rp25
ag1
(g5
S'\x00\x00\x00\x00B}6A'
p26
tp27
Rp28
ag1
(g5
S'\x00\x00\x00\x00\xcf\x806A'
p29
tp30
Rp31
ag1
(g5
S'\x00\x00\x00\xc0\xa6\r6A'
p32
tp33
Rp34
a.(lp0
cnumpy.core.multiarray
scalar
p1
(cnumpy
dtype
p2
(S'f8'
p3
I0
I1
tp4
Rp5
(I3
S'<'
p6
NNNI-1
I-1
I0
tp7
bS'\x00\x00\x00@\x96\x806A'
p8
tp9
Rp10
ag1
(g5
S'\x00\x00\x00@\xd4z6A'
p11
tp12
Rp13
ag1
(g5
S'\x00\x00\x00\xc0%\x196A'
p14
tp15
Rp16
ag1
(g5
S'\x00\x00\x00 \x17\x076A'
p17
tp18
Rp19
ag1
(g5
S'\x00\x00\x00\xc0t\x066A'
p20
tp21
Rp22
ag1
(g5
S'\x00\x00\x00\xa0|x6A'
p23
tp24
Rp25
ag1
(g5
S'\x00\x00\x00@s\x806A'
p26
tp27
Rp28
ag1
(g5
S'\x00\x00\x00 *\x836A'
p29
tp30
Rp31
ag1
(g5
S'\x00\x00\x00\xe0\xd5\x176A'
p32
tp33
Rp34
a.(lp0
cnumpy.core.multiarray
scalar
p1
(cnumpy
dtype
p2
(S'f8'
p3
I0
I1
tp4
Rp5
(I3
S'<'
p6
NNNI-1
I-1
I0
tp7
bS'\x00\x00\x00\x00\xa7\x8d6A'
p8
tp9
Rp10
ag1
(g5
S'\x00\x00\x00\x00\xc6\x8c6A'
p11
tp12
Rp13
ag1
(g5
S'\x00\x00\x00\x00\xf3H6A'
p14
tp15
Rp16
ag1
(g5
S'\x00\x00\x00\x00d\x0f6A'
p17
tp18
Rp19
ag1
(g5
S'\x00\x00\x00\x80\x00\xf66A'
p20
tp21
Rp22
ag1
(g5
S'\x00\x00\x00\x80\xb0\x876A'
p23
tp24
Rp25
ag1
(g5
S'\x00\x00\x00\x00a\x856A'
p26
tp27
Rp28
ag1
(g5
S'\x00\x00\x00\x00\x00\x886A'
p29
tp30
Rp31
ag1
(g5
S'\x00\x00\x00\x00\xa4P6A'
p32
tp33
Rp34
a.(lp0
cnumpy.core.multiarray
scalar
p1
(cnumpy
dtype
p2
(S'f8'
p3
I0
I1
tp4
Rp5
(I3
S'<'
p6
NNNI-1
I-1
I0
tp7
bS'\x057\xdb\x839.\xc4@'
p8
tp9
Rp10
ag1
(g5
S'E\xf4\xb7\xd8\xd6\xb7\xb8@'
p11
tp12
Rp13
ag1
(g5
S'\x02\x19\x93`:\xcd\xbc@'
p14
tp15
Rp16
ag1
(g5
S'6n\xf2B\xca\x1a\xa1@'
p17
tp18
Rp19
ag1
(g5
S'\x17\xa7\x9bz\xad\xa9\xd4@'
p20
tp21
Rp22
ag1
(g5
S'Z2\x12K(u\xcb@'
p23
tp24
Rp25
ag1
(g5
S'\x17\xbe6\x0e\xab\x98\x98@'
p26
tp27
Rp28
ag1
(g5
S'\xaa\xb0\x1d1\xe8\x84\xc0@'
p29
tp30
Rp31
ag1
(g5
S'\xe3\x04m\xfcJ+\xbb@'
p32
tp33
Rp34
a.(lp0
cnumpy.core.multiarray
scalar
p1
(cnumpy
dtype
p2
(S'f8'
p3
I0
I1
tp4
Rp5
(I3
S'<'
p6
NNNI-1
I-1
I0
tp7
bS'\x9a\x99\x99\x19\xc7f6A'
p8
tp9
Rp10
ag1
(g5
S'fff&\x08e6A'
p11
tp12
Rp13
ag1
(g5
S'333sg\x126A'
p14
tp15
Rp16
ag1
(g5
S'\x00\x00\x00\x00\xe7\x016A'
p17
tp18
Rp19
ag1
(g5
S'\xcd\xcc\xccL\xc0*6A'
p20
tp21
Rp22
ag1
(g5
S'\x00\x00\x00\xc0\xa6P6A'
p23
tp24
Rp25
ag1
(g5
S'\x9a\x99\x99\x99\xa5|6A'
p26
tp27
Rp28
ag1
(g5
S'fff\xe6>p6A'
p29
tp30
Rp31
ag1
(g5
S'\xcd\xcc\xcc\x8c\x89\x0e6A'
p32
tp33
Rp34
a.(lp0
I0
aI1
aI2
aI3
aI4
aI5
aI6
aI7
aI8
a.