(lp0
F346330.0
aF347361.0
aF348654.0
aF349168.0
aF351402.0
aF350377.0
aF351406.0
aF352344.0
aF351114.0
aF364192.0
aF364065.0
aF362869.0
aF360014.0
aF358503.0
aF362623.0
aF369586.0
aF377021.0
aF399558.0
aF411605.0
aF405968.0
aF407674.0
aF411690.0
aF404366.0
aF402720.0
aF414848.0
aF455084.0
aF454289.0
aF442442.0
aF448979.0
aF450832.0
aF458561.0
aF454964.0
aF455024.0
aF467698.0
aF458696.0
aF441216.0
a.(lp0
(i__main__
Individual
p1
(dp2
S'genome'
p3
(lp4
I198
aI127
aI32
aI166
aI144
aI52
aI83
aI145
aI201
aI117
aI188
aI213
aI245
aI57
aI140
asS'fitness'
p5
F346330.0
sba(i__main__
Individual
p6
(dp7
g3
(lp8
I198
aI127
aI41
aI166
aI144
aI52
aI83
aI105
aI201
aI117
aI188
aI192
aI245
aI57
aI140
asg5
F347361.0
sba(i__main__
Individual
p9
(dp10
g3
(lp11
I198
aI127
aI41
aI178
aI155
aI52
aI83
aI105
aI201
aI117
aI188
aI192
aI245
aI57
aI140
asg5
F348654.0
sba(i__main__
Individual
p12
(dp13
g3
(lp14
I198
aI127
aI106
aI166
aI144
aI116
aI83
aI105
aI201
aI117
aI214
aI163
aI245
aI57
aI140
asg5
F349168.0
sba(i__main__
Individual
p15
(dp16
g3
(lp17
I124
aI184
aI52
aI178
aI178
aI52
aI83
aI105
aI175
aI117
aI232
aI192
aI246
aI57
aI140
asg5
F351402.0
sba(i__main__
Individual
p18
(dp19
g3
(lp20
I124
aI184
aI52
aI178
aI178
aI52
aI83
aI105
aI175
aI117
aI232
aI192
aI246
aI57
aI140
asg5
F350377.0
sba(i__main__
Individual
p21
(dp22
g3
(lp23
I124
aI184
aI52
aI178
aI178
aI52
aI83
aI105
aI175
aI117
aI232
aI192
aI246
aI57
aI140
asg5
F351406.0
sba(i__main__
Individual
p24
(dp25
g3
(lp26
I124
aI184
aI52
aI178
aI178
aI52
aI83
aI105
aI175
aI117
aI232
aI192
aI246
aI57
aI140
asg5
F352344.0
sba(i__main__
Individual
p27
(dp28
g3
(lp29
I124
aI184
aI52
aI178
aI178
aI52
aI83
aI105
aI175
aI117
aI232
aI192
aI246
aI57
aI140
asg5
F351114.0
sba(i__main__
Individual
p30
(dp31
g3
(lp32
I232
aI69
aI106
aI166
aI248
aI0
aI83
aI105
aI90
aI53
aI219
aI132
aI211
aI51
aI136
asg5
F364192.0
sba(i__main__
Individual
p33
(dp34
g3
(lp35
I232
aI69
aI106
aI166
aI248
aI0
aI83
aI105
aI90
aI53
aI219
aI132
aI211
aI51
aI136
asg5
F364065.0
sba(i__main__
Individual
p36
(dp37
g3
(lp38
I232
aI69
aI106
aI166
aI248
aI0
aI83
aI105
aI90
aI53
aI219
aI132
aI211
aI51
aI136
asg5
F362869.0
sba(i__main__
Individual
p39
(dp40
g3
(lp41
I232
aI69
aI106
aI166
aI248
aI0
aI83
aI105
aI90
aI53
aI219
aI132
aI211
aI51
aI136
asg5
F360014.0
sba(i__main__
Individual
p42
(dp43
g3
(lp44
I232
aI69
aI106
aI166
aI248
aI0
aI83
aI105
aI90
aI53
aI219
aI132
aI211
aI51
aI136
asg5
F358503.0
sba(i__main__
Individual
p45
(dp46
g3
(lp47
I232
aI69
aI106
aI166
aI248
aI0
aI83
aI105
aI90
aI53
aI219
aI132
aI211
aI51
aI136
asg5
F362623.0
sba(i__main__
Individual
p48
(dp49
g3
(lp50
I232
aI69
aI106
aI105
aI254
aI0
aI83
aI97
aI90
aI53
aI219
aI132
aI254
aI51
aI136
asg5
F369586.0
sba(i__main__
Individual
p51
(dp52
g3
(lp53
I255
aI69
aI109
aI200
aI96
aI28
aI59
aI191
aI90
aI42
aI240
aI132
aI215
aI97
aI136
asg5
F377021.0
sba(i__main__
Individual
p54
(dp55
g3
(lp56
I232
aI69
aI136
aI105
aI255
aI0
aI83
aI97
aI90
aI53
aI212
aI132
aI254
aI51
aI136
asg5
F399558.0
sba(i__main__
Individual
p57
(dp58
g3
(lp59
I232
aI69
aI136
aI105
aI255
aI0
aI140
aI101
aI90
aI4
aI212
aI132
aI255
aI51
aI136
asg5
F411605.0
sba(i__main__
Individual
p60
(dp61
g3
(lp62
I232
aI69
aI136
aI105
aI255
aI0
aI140
aI101
aI90
aI4
aI212
aI132
aI255
aI51
aI136
asg5
F405968.0
sba(i__main__
Individual
p63
(dp64
g3
(lp65
I232
aI69
aI136
aI105
aI255
aI0
aI140
aI101
aI90
aI4
aI212
aI132
aI255
aI51
aI136
asg5
F407674.0
sba(i__main__
Individual
p66
(dp67
g3
(lp68
I232
aI69
aI136
aI105
aI255
aI0
aI140
aI101
aI90
aI4
aI212
aI132
aI255
aI51
aI136
asg5
F411690.0
sba(i__main__
Individual
p69
(dp70
g3
(lp71
I232
aI69
aI136
aI105
aI255
aI0
aI140
aI101
aI90
aI4
aI212
aI132
aI255
aI51
aI136
asg5
F404366.0
sba(i__main__
Individual
p72
(dp73
g3
(lp74
I248
aI69
aI136
aI105
aI255
aI0
aI140
aI74
aI36
aI0
aI212
aI132
aI214
aI51
aI136
asg5
F402720.0
sba(i__main__
Individual
p75
(dp76
g3
(lp77
I255
aI69
aI136
aI173
aI255
aI0
aI140
aI101
aI93
aI4
aI212
aI132
aI255
aI51
aI136
asg5
F414848.0
sba(i__main__
Individual
p78
(dp79
g3
(lp80
I255
aI69
aI136
aI212
aI255
aI0
aI77
aI19
aI93
aI4
aI237
aI132
aI255
aI82
aI136
asg5
F455084.0
sba(i__main__
Individual
p81
(dp82
g3
(lp83
I255
aI69
aI136
aI212
aI255
aI0
aI77
aI19
aI93
aI4
aI237
aI132
aI255
aI82
aI136
asg5
F454289.0
sba(i__main__
Individual
p84
(dp85
g3
(lp86
I255
aI69
aI136
aI212
aI255
aI0
aI77
aI19
aI93
aI4
aI237
aI132
aI255
aI82
aI136
asg5
F442442.0
sba(i__main__
Individual
p87
(dp88
g3
(lp89
I255
aI69
aI136
aI212
aI255
aI0
aI77
aI19
aI93
aI4
aI237
aI132
aI255
aI82
aI136
asg5
F448979.0
sba(i__main__
Individual
p90
(dp91
g3
(lp92
I220
aI86
aI136
aI90
aI230
aI0
aI25
aI19
aI0
aI8
aI238
aI131
aI255
aI82
aI136
asg5
F450832.0
sba(i__main__
Individual
p93
(dp94
g3
(lp95
I220
aI86
aI136
aI90
aI230
aI0
aI25
aI19
aI0
aI8
aI238
aI131
aI255
aI82
aI136
asg5
F458561.0
sba(i__main__
Individual
p96
(dp97
g3
(lp98
I220
aI86
aI136
aI90
aI230
aI0
aI25
aI19
aI0
aI8
aI238
aI131
aI255
aI82
aI136
asg5
F454964.0
sba(i__main__
Individual
p99
(dp100
g3
(lp101
I220
aI86
aI136
aI90
aI230
aI0
aI25
aI19
aI0
aI8
aI238
aI131
aI255
aI82
aI136
asg5
F455024.0
sba(i__main__
Individual
p102
(dp103
g3
(lp104
I220
aI78
aI136
aI104
aI230
aI0
aI25
aI0
aI0
aI40
aI238
aI159
aI255
aI77
aI136
asg5
F467698.0
sba(i__main__
Individual
p105
(dp106
g3
(lp107
I220
aI78
aI136
aI104
aI230
aI0
aI25
aI0
aI0
aI40
aI238
aI159
aI255
aI77
aI136
asg5
F458696.0
sba(i__main__
Individual
p108
(dp109
g3
(lp110
I220
aI78
aI136
aI104
aI230
aI0
aI25
aI0
aI0
aI40
aI238
aI159
aI255
aI77
aI136
asg5
F441216.0
sba.