(lp0
F325070.0
aF329369.0
a.(lp0
(i__main__
Individual
p1
(dp2
S'genome'
p3
(lp4
I162
aI93
aI188
aI31
aI151
aI190
aI68
aI75
aI188
aI94
aI160
aI11
aI179
aI68
aI61
asS'fitness'
p5
F325070.0
sba(i__main__
Individual
p6
(dp7
g3
(lp8
I249
aI89
aI89
aI167
aI33
aI64
aI145
aI241
aI67
aI234
aI23
aI118
aI104
aI180
aI237
asg5
F329369.0
sba.