(lp0
F310947.0
aF310682.0
aF310564.0
aF310759.0
aF310555.0
aF310688.0
aF310724.0
aF311057.0
aF311186.0
aF310910.0
aF310786.0
aF310811.0
aF311000.0
a.(lp0
(i__main__
Individual
p1
(dp2
S'genome'
p3
(lp4
I249
aI226
aI85
aI110
aI232
aI205
aI41
aI7
aI64
aI202
aI151
aI25
asS'fitness'
p5
F310947.0
sba(i__main__
Individual
p6
(dp7
g3
(lp8
I186
aI159
aI162
aI98
aI171
aI53
aI127
aI145
aI114
aI16
aI143
aI77
asg5
F310682.0
sba(i__main__
Individual
p9
(dp10
g3
(lp11
I76
aI254
aI204
aI172
aI42
aI248
aI110
aI43
aI33
aI144
aI188
aI234
asg5
F310564.0
sba(i__main__
Individual
p12
(dp13
g3
(lp14
I76
aI254
aI204
aI172
aI74
aI248
aI103
aI43
aI33
aI144
aI62
aI234
asg5
F310759.0
sba(i__main__
Individual
p15
(dp16
g3
(lp17
I156
aI64
aI29
aI229
aI105
aI212
aI191
aI254
aI37
aI211
aI169
aI39
asg5
F310555.0
sba(i__main__
Individual
p18
(dp19
g3
(lp20
I249
aI226
aI85
aI110
aI232
aI205
aI41
aI7
aI64
aI202
aI151
aI25
asg5
F310688.0
sba(i__main__
Individual
p21
(dp22
g3
(lp23
I156
aI64
aI29
aI255
aI105
aI255
aI191
aI254
aI37
aI211
aI169
aI91
asg5
F310724.0
sba(i__main__
Individual
p24
(dp25
g3
(lp26
I235
aI226
aI85
aI110
aI127
aI205
aI41
aI7
aI64
aI202
aI151
aI25
asg5
F311057.0
sba(i__main__
Individual
p27
(dp28
g3
(lp29
I249
aI226
aI85
aI110
aI232
aI205
aI41
aI7
aI64
aI202
aI151
aI25
asg5
F311186.0
sba(i__main__
Individual
p30
(dp31
g3
(lp32
I249
aI226
aI85
aI110
aI232
aI205
aI41
aI7
aI64
aI202
aI151
aI25
asg5
F310910.0
sba(i__main__
Individual
p33
(dp34
g3
(lp35
I249
aI226
aI85
aI82
aI232
aI205
aI88
aI7
aI64
aI202
aI151
aI25
asg5
F310786.0
sba(i__main__
Individual
p36
(dp37
g3
(lp38
I178
aI226
aI85
aI110
aI232
aI205
aI41
aI7
aI64
aI202
aI151
aI25
asg5
F310811.0
sba(i__main__
Individual
p39
(dp40
g3
(lp41
I134
aI49
aI231
aI43
aI143
aI183
aI46
aI11
aI195
aI112
aI63
aI191
asg5
F311000.0
sba.