(lp0
F1781759.0
aF1810652.0
aF1812065.0
a.(lp0
(i__main__
Individual
p1
(dp2
S'genome'
p3
(lp4
I199
aI53
aI85
asS'fitness'
p5
F1781759.0
sba(i__main__
Individual
p6
(dp7
g3
(lp8
I199
aI53
aI85
asg5
F1810652.0
sba(i__main__
Individual
p9
(dp10
g3
(lp11
I199
aI53
aI85
asg5
F1812065.0
sba.