(lp0
(lp1
F1621068.0
aF1581946.0
aF1589048.0
aF1581831.0
aF1607561.0
aF1661429.0
aF1581100.0
aF1738388.0
aF1628452.0
aF1611541.0
aa(lp2
F1742093.0
aF1662157.0
aF1590136.0
aF1791605.0
aF1767441.0
aF1649356.0
aF1632386.0
aF1546894.0
aF1574566.0
aF1886904.0
aa(lp3
F1783236.0
aF1590389.0
aF1607236.0
aF1656514.0
aF1584957.0
aF1590699.0
aF1634343.0
aF1587427.0
aF1756162.0
aF1582884.0
aa(lp4
F1731742.0
aF1586168.0
aF1616279.0
aF1594419.0
aF1586083.0
aF1594075.0
aF1563940.0
aF1723435.0
aF1752089.0
aF1606575.0
aa(lp5
F1751869.0
aF1680354.0
aF1743885.0
aF1777606.0
aF2161062.0
aF1601025.0
aF1623813.0
aF1658621.0
aF1615019.0
aF1607208.0
aa(lp6
F1734415.0
aF1649905.0
aF1624234.0
aF1634352.0
aF1652500.0
aF1638815.0
aF1627055.0
aF1648805.0
aF1593410.0
aF1828655.0
aa(lp7
F1756925.0
aF1584000.0
aF1649473.0
aF1657934.0
aF1657444.0
aF1749515.0
aF1621503.0
aF1698466.0
aF1576553.0
aF1563137.0
aa(lp8
F1729867.0
aF1721520.0
aF1593186.0
aF1832052.0
aF1646495.0
aF1646857.0
aF1667924.0
aF1759888.0
aF1571368.0
aF1657033.0
aa(lp9
F1755077.0
aF1762811.0
aF1605485.0
aF1598309.0
aF1753315.0
aF1670096.0
aF1684225.0
aF1630262.0
aF1628616.0
aF1592612.0
aa(lp10
F1747931.0
aF1575971.0
aF1619474.0
aF1633244.0
aF1827005.0
aF1623642.0
aF1652963.0
aF1696439.0
aF1604599.0
aF1589727.0
aa.(lp0
cnumpy.core.multiarray
scalar
p1
(cnumpy
dtype
p2
(S'f8'
p3
I0
I1
tp4
Rp5
(I3
S'<'
p6
NNNI-1
I-1
I0
tp7
bS'\x00\x00\x00\x00, 8A'
p8
tp9
Rp10
ag1
(g5
S'\x00\x00\x00\x00\x8e\x9a7A'
p11
tp12
Rp13
ag1
(g5
S"\x00\x00\x00\x00$'8A"
p14
tp15
Rp16
ag1
(g5
S'\x00\x00\x00\x00$\xdd7A'
p17
tp18
Rp19
ag1
(g5
S'\x00\x00\x00\x00\x01n8A'
p20
tp21
Rp22
ag1
(g5
S'\x00\x00\x00\x00BP8A'
p23
tp24
Rp25
ag1
(g5
S'\x00\x00\x00\x00\x01\xda7A'
p26
tp27
Rp28
ag1
(g5
S'\x00\x00\x00\x00(\xfa7A'
p29
tp30
Rp31
ag1
(g5
S'\x00\x00\x00\x00$M8A'
p32
tp33
Rp34
ag1
(g5
S'\x00\x00\x00\x00#\x0c8A'
p35
tp36
Rp37
a.(lp0
cnumpy.core.multiarray
scalar
p1
(cnumpy
dtype
p2
(S'f8'
p3
I0
I1
tp4
Rp5
(I3
S'<'
p6
NNNI-1
I-1
I0
tp7
bS'\x00\x00\x00\x80i*8A'
p8
tp9
Rp10
ag1
(g5
S'\x00\x00\x00\x80\xbal8A'
p11
tp12
Rp13
ag1
(g5
S'\x00\x00\x00\x80\xc7;8A'
p14
tp15
Rp16
ag1
(g5
S'\x00\x00\x00\xc0\xb0;8A'
p17
tp18
Rp19
ag1
(g5
S'\x00\x00\x00\x80A\xad8A'
p20
tp21
Rp22
ag1
(g5
S'\x00\x00\x00@\xcf\xda8A'
p23
tp24
Rp25
ag1
(g5
S'\x00\x00\x00\xc0\x1fP8A'
p26
tp27
Rp28
ag1
(g5
S'\x00\x00\x00\x80\xf9\x1f9A'
p29
tp30
Rp31
ag1
(g5
S'\x00\x00\x00\xc0\x03\x968A'
p32
tp33
Rp34
ag1
(g5
S'\x00\x00\x00\xc0}\x8a8A'
p35
tp36
Rp37
a.(lp0
cnumpy.core.multiarray
scalar
p1
(cnumpy
dtype
p2
(S'f8'
p3
I0
I1
tp4
Rp5
(I3
S'<'
p6
NNNI-1
I-1
I0
tp7
bS'\x00\x00\x00\x00O\x8f8A'
p8
tp9
Rp10
ag1
(g5
S'\x00\x00\x00\x80\xccC9A'
p11
tp12
Rp13
ag1
(g5
S'\x00\x00\x00\x80\xf7e8A'
p14
tp15
Rp16
ag1
(g5
S'\x00\x00\x00\x00\xf1k8A'
p17
tp18
Rp19
ag1
(g5
S'\x00\x00\x00\x80oy9A'
p20
tp21
Rp22
ag1
(g5
S'\x00\x00\x00\x00"\x159A'
p23
tp24
Rp25
ag1
(g5
S'\x00\x00\x00\x80\xd2:9A'
p26
tp27
Rp28
ag1
(g5
S'\x00\x00\x00\x80\x0e^9A'
p29
tp30
Rp31
ag1
(g5
S'\x00\x00\x00\x00\x03.9A'
p32
tp33
Rp34
ag1
(g5
S'\x00\x00\x00\x00\x1b\xd98A'
p35
tp36
Rp37
a.(lp0
cnumpy.core.multiarray
scalar
p1
(cnumpy
dtype
p2
(S'f8'
p3
I0
I1
tp4
Rp5
(I3
S'<'
p6
NNNI-1
I-1
I0
tp7
bS'\x00\x00\x00\x00\xee\xd18A'
p8
tp9
Rp10
ag1
(g5
S'\x00\x00\x00\x00P\xdf:A'
p11
tp12
Rp13
ag1
(g5
S'\x00\x00\x00@\x1b19A'
p14
tp15
Rp16
ag1
(g5
S'\x00\x00\x00\x00\x86\xe39A'
p17
tp18
Rp19
ag1
(g5
S'\x00\x00\x00\x00q\xb3:A'
p20
tp21
Rp22
ag1
(g5
S'\x00\x00\x00@\x8b49A'
p23
tp24
Rp25
ag1
(g5
S'\x00\x00\x00\x00\r\xc39A'
p26
tp27
Rp28
ag1
(g5
S'\x00\x00\x00@$]:A'
p29
tp30
Rp31
ag1
(g5
S'\x00\x00\x00\x80j}:A'
p32
tp33
Rp34
ag1
(g5
S'\x00\x00\x00\x00B\xb89A'
p35
tp36
Rp37
a.(lp0
cnumpy.core.multiarray
scalar
p1
(cnumpy
dtype
p2
(S'f8'
p3
I0
I1
tp4
Rp5
(I3
S'<'
p6
NNNI-1
I-1
I0
tp7
bS'\x00\x00\x00\x00\x94\x86:A'
p8
tp9
Rp10
ag1
(g5
S'\x00\x00\x00\x00\xb8\xca<A'
p11
tp12
Rp13
ag1
(g5
S'\x00\x00\x00\x00\xc45;A'
p14
tp15
Rp16
ag1
(g5
S'\x00\x00\x00\x00\x19\xbc:A'
p17
tp18
Rp19
ag1
(g5
S'\x00\x00\x00\x00\xd3|@A'
p20
tp21
Rp22
ag1
(g5
S'\x00\x00\x00\x00/\xe7;A'
p23
tp24
Rp25
ag1
(g5
S'\x00\x00\x00\x00\xfd\xce:A'
p26
tp27
Rp28
ag1
(g5
S'\x00\x00\x00\x00t\xf4;A'
p29
tp30
Rp31
ag1
(g5
S'\x00\x00\x00\x00\xfb\xe5:A'
p32
tp33
Rp34
ag1
(g5
S'\x00\x00\x00\x00\xbd\xe0;A'
p35
tp36
Rp37
a.(lp0
cnumpy.core.multiarray
scalar
p1
(cnumpy
dtype
p2
(S'f8'
p3
I0
I1
tp4
Rp5
(I3
S'<'
p6
NNNI-1
I-1
I0
tp7
bS'\x8ab\x95xh\x97\xe6@'
p8
tp9
Rp10
ag1
(g5
S'\x94c\xf0\xad]A\xf9@'
p11
tp12
Rp13
ag1
(g5
S'\x80\xfc?\x1d\xef"\xf1@'
p14
tp15
Rp16
ag1
(g5
S'U\xbfH=\xaci\xf0@'
p17
tp18
Rp19
ag1
(g5
S'{V&l\xad_\x03A'
p20
tp21
Rp22
ag1
(g5
S"y'=]s\xab\xef@"
p23
tp24
Rp25
ag1
(g5
S'\xf8\x92\x9d\x9a:\x9a\xef@'
p26
tp27
Rp28
ag1
(g5
S'\x06qg\xb5\xe2?\xf2@'
p29
tp30
Rp31
ag1
(g5
S':<\xb8\xea\x91x\xef@'
p32
tp33
Rp34
ag1
(g5
S'\xa2\x97\x8f;\x087\xf2@'
p35
tp36
Rp37
a.(lp0
cnumpy.core.multiarray
scalar
p1
(cnumpy
dtype
p2
(S'f8'
p3
I0
I1
tp4
Rp5
(I3
S'<'
p6
NNNI-1
I-1
I0
tp7
bS'ffff\x0c\xb98A'
p8
tp9
Rp10
ag1
(g5
S'\xcd\xcc\xcc\xcc\x81\xb39A'
p11
tp12
Rp13
ag1
(g5
S'333\xb3\x08\xfc8A'
p14
tp15
Rp16
ag1
(g5
S'\x00\x00\x00\x80\x98\xf48A'
p17
tp18
Rp19
ag1
(g5
S'3333\xbeF:A'
p20
tp21
Rp22
ag1
(g5
S'\x9a\x99\x99\x99\xee`9A'
p23
tp24
Rp25
ag1
(g5
S"\x00\x00\x00\x00'39A"
p26
tp27
Rp28
ag1
(g5
S'\x00\x00\x00\x00\xbb\xac9A'
p29
tp30
Rp31
ag1
(g5
S'\xcd\xcc\xcc\xcc\xf0s9A'
p32
tp33
Rp34
ag1
(g5
S'\x00\x00\x00\x80\x0bI9A'
p35
tp36
Rp37
a.(lp0
I0
aI1
aI2
aI3
aI4
aI5
aI6
aI7
aI8
aI9
a.