(lp0
F298575.0
aF309127.0
aF307672.0
aF308227.0
aF307979.0
aF309500.0
aF309470.0
aF309455.0
aF309983.0
aF309088.0
aF309337.0
aF326141.0
aF309567.0
aF309606.0
aF324705.0
aF309102.0
aF308548.0
aF315168.0
aF308298.0
aF309365.0
aF307689.0
aF307981.0
aF308827.0
aF308235.0
aF308890.0
aF311823.0
aF308868.0
aF308525.0
aF325556.0
aF309307.0
aF309263.0
aF308064.0
aF337555.0
aF307725.0
aF308261.0
aF309038.0
aF307836.0
aF307623.0
aF322033.0
aF307806.0
a.(lp0
(i__main__
Individual
p1
(dp2
S'genome'
p3
(lp4
I62
aI74
aI55
asS'fitness'
p5
F298575.0
sba(i__main__
Individual
p6
(dp7
g3
(lp8
I43
aI107
aI13
asg5
F309127.0
sba(i__main__
Individual
p9
(dp10
g3
(lp11
I154
aI61
aI55
asg5
F307672.0
sba(i__main__
Individual
p12
(dp13
g3
(lp14
I135
aI32
aI0
asg5
F308227.0
sba(i__main__
Individual
p15
(dp16
g3
(lp17
I255
aI239
aI146
asg5
F307979.0
sba(i__main__
Individual
p18
(dp19
g3
(lp20
I248
aI123
aI220
asg5
F309500.0
sba(i__main__
Individual
p21
(dp22
g3
(lp23
I248
aI123
aI179
asg5
F309470.0
sba(i__main__
Individual
p24
(dp25
g3
(lp26
I248
aI139
aI201
asg5
F309455.0
sba(i__main__
Individual
p27
(dp28
g3
(lp29
I248
aI139
aI220
asg5
F309983.0
sba(i__main__
Individual
p30
(dp31
g3
(lp32
I248
aI249
aI253
asg5
F309088.0
sba(i__main__
Individual
p33
(dp34
g3
(lp35
I240
aI243
aI146
asg5
F309337.0
sba(i__main__
Individual
p36
(dp37
g3
(lp38
I150
aI38
aI136
asg5
F326141.0
sba(i__main__
Individual
p39
(dp40
g3
(lp41
I248
aI139
aI220
asg5
F309567.0
sba(i__main__
Individual
p42
(dp43
g3
(lp44
I255
aI139
aI220
asg5
F309606.0
sba(i__main__
Individual
p45
(dp46
g3
(lp47
I169
aI32
aI88
asg5
F324705.0
sba(i__main__
Individual
p48
(dp49
g3
(lp50
I135
aI0
aI0
asg5
F309102.0
sba(i__main__
Individual
p51
(dp52
g3
(lp53
I120
aI237
aI194
asg5
F308548.0
sba(i__main__
Individual
p54
(dp55
g3
(lp56
I62
aI74
aI55
asg5
F315168.0
sba(i__main__
Individual
p57
(dp58
g3
(lp59
I248
aI139
aI220
asg5
F308298.0
sba(i__main__
Individual
p60
(dp61
g3
(lp62
I248
aI139
aI200
asg5
F309365.0
sba(i__main__
Individual
p63
(dp64
g3
(lp65
I5
aI153
aI183
asg5
F307689.0
sba(i__main__
Individual
p66
(dp67
g3
(lp68
I254
aI151
aI59
asg5
F307981.0
sba(i__main__
Individual
p69
(dp70
g3
(lp71
I255
aI199
aI59
asg5
F308827.0
sba(i__main__
Individual
p72
(dp73
g3
(lp74
I240
aI243
aI129
asg5
F308235.0
sba(i__main__
Individual
p75
(dp76
g3
(lp77
I50
aI194
aI141
asg5
F308890.0
sba(i__main__
Individual
p78
(dp79
g3
(lp80
I204
aI142
aI126
asg5
F311823.0
sba(i__main__
Individual
p81
(dp82
g3
(lp83
I248
aI139
aI220
asg5
F308868.0
sba(i__main__
Individual
p84
(dp85
g3
(lp86
I248
aI139
aI220
asg5
F308525.0
sba(i__main__
Individual
p87
(dp88
g3
(lp89
I152
aI37
aI127
asg5
F325556.0
sba(i__main__
Individual
p90
(dp91
g3
(lp92
I248
aI139
aI198
asg5
F309307.0
sba(i__main__
Individual
p93
(dp94
g3
(lp95
I255
aI139
aI220
asg5
F309263.0
sba(i__main__
Individual
p96
(dp97
g3
(lp98
I203
aI139
aI220
asg5
F308064.0
sba(i__main__
Individual
p99
(dp100
g3
(lp101
I180
aI74
aI123
asg5
F337555.0
sba(i__main__
Individual
p102
(dp103
g3
(lp104
I186
aI32
aI0
asg5
F307725.0
sba(i__main__
Individual
p105
(dp106
g3
(lp107
I5
aI101
aI141
asg5
F308261.0
sba(i__main__
Individual
p108
(dp109
g3
(lp110
I0
aI50
aI169
asg5
F309038.0
sba(i__main__
Individual
p111
(dp112
g3
(lp113
I23
aI74
aI0
asg5
F307836.0
sba(i__main__
Individual
p114
(dp115
g3
(lp116
I62
aI74
aI56
asg5
F307623.0
sba(i__main__
Individual
p117
(dp118
g3
(lp119
I135
aI32
aI103
asg5
F322033.0
sba(i__main__
Individual
p120
(dp121
g3
(lp122
I5
aI101
aI205
asg5
F307806.0
sba.