(lp0
(lp1
F1577124.0
aF1584811.0
aF1593215.0
aF1560648.0
aF1717113.0
aF1489530.0
aF1532401.0
aF1692324.0
aF1553003.0
aF1580453.0
aF1580461.0
aF1511141.0
aa(lp2
F1710738.0
aF1555751.0
aF1535512.0
aF1578753.0
aF1579104.0
aF1535758.0
aF1582277.0
aF1592590.0
aF1596407.0
aF1620034.0
aF1595507.0
aF1567139.0
aa(lp3
F1718688.0
aF1560753.0
aF1610455.0
aF1657567.0
aF1565886.0
aF1586366.0
aF1581150.0
aF1623579.0
aF1588141.0
aF1611908.0
aF1596303.0
aF1616425.0
aa(lp4
F1737650.0
aF1694502.0
aF1673592.0
aF1619263.0
aF1625888.0
aF1572654.0
aF1606343.0
aF1581191.0
aF1630232.0
aF1564704.0
aF1690214.0
aF1677446.0
aa.(lp0
cnumpy.core.multiarray
scalar
p1
(cnumpy
dtype
p2
(S'f8'
p3
I0
I1
tp4
Rp5
(I3
S'<'
p6
NNNI-1
I-1
I0
tp7
bS'\x00\x00\x00\x00z\xba6A'
p8
tp9
Rp10
ag1
(g5
S'\x00\x00\x00\x00\x18n7A'
p11
tp12
Rp13
ag1
(g5
S'\x00\x00\x00\x00\xb1\xd07A'
p14
tp15
Rp16
ag1
(g5
S'\x00\x00\x00\x00 \xe07A'
p17
tp18
Rp19
a.(lp0
cnumpy.core.multiarray
scalar
p1
(cnumpy
dtype
p2
(S'f8'
p3
I0
I1
tp4
Rp5
(I3
S'<'
p6
NNNI-1
I-1
I0
tp7
bS'\x00\x00\x00\x80L\x9e7A'
p8
tp9
Rp10
ag1
(g5
S'\x00\x00\x00\x00\x84\xde7A'
p11
tp12
Rp13
ag1
(g5
S'\x00\x00\x00\x00\xa6/8A'
p14
tp15
Rp16
ag1
(g5
S'\x00\x00\x00\x007j8A'
p17
tp18
Rp19
a.(lp0
cnumpy.core.multiarray
scalar
p1
(cnumpy
dtype
p2
(S'f8'
p3
I0
I1
tp4
Rp5
(I3
S'<'
p6
NNNI-1
I-1
I0
tp7
bS'\x00\x00\x00\x80$\x178A'
p8
tp9
Rp10
ag1
(g5
S'\x00\x00\x00\x80\x92\x1e8A'
p11
tp12
Rp13
ag1
(g5
S'\x00\x00\x00\x003w8A'
p14
tp15
Rp16
ag1
(g5
S'\x00\x00\x00\x00\x9c\xd78A'
p17
tp18
Rp19
a.(lp0
cnumpy.core.multiarray
scalar
p1
(cnumpy
dtype
p2
(S'f8'
p3
I0
I1
tp4
Rp5
(I3
S'<'
p6
NNNI-1
I-1
I0
tp7
bS'\x00\x00\x00\x00\xe068A'
p8
tp9
Rp10
ag1
(g5
S'\x00\x00\x00\x00TY8A'
p11
tp12
Rp13
ag1
(g5
S'\x00\x00\x00\x80%\xb18A'
p14
tp15
Rp16
ag1
(g5
S'\x00\x00\x00\x00\xfe\xa49A'
p17
tp18
Rp19
a.(lp0
cnumpy.core.multiarray
scalar
p1
(cnumpy
dtype
p2
(S'f8'
p3
I0
I1
tp4
Rp5
(I3
S'<'
p6
NNNI-1
I-1
I0
tp7
bS'\x00\x00\x00\x00y3:A'
p8
tp9
Rp10
ag1
(g5
S'\x00\x00\x00\x00\x92\x1a:A'
p11
tp12
Rp13
ag1
(g5
S'\x00\x00\x00\x00\xa09:A'
p14
tp15
Rp16
ag1
(g5
S'\x00\x00\x00\x00\xb2\x83:A'
p17
tp18
Rp19
a.(lp0
cnumpy.core.multiarray
scalar
p1
(cnumpy
dtype
p2
(S'f8'
p3
I0
I1
tp4
Rp5
(I3
S'<'
p6
NNNI-1
I-1
I0
tp7
bS'\xc5jKN\xf4\xd9\xee@'
p8
tp9
Rp10
ag1
(g5
S'\xcb\x17\xfc\x86\xef\x8e\xe5@'
p11
tp12
Rp13
ag1
(g5
S'J\x8a\x0f\x17\xadK\xe4@'
p14
tp15
Rp16
ag1
(g5
S'\xe2a\x01\xc2\x8e\xa2\xe9@'
p17
tp18
Rp19
a.(lp0
cnumpy.core.multiarray
scalar
p1
(cnumpy
dtype
p2
(S'f8'
p3
I0
I1
tp4
Rp5
(I3
S'<'
p6
NNNI-1
I-1
I0
tp7
bS'\xab\xaa\xaa\xaa\xda\x1f8A'
p8
tp9
Rp10
ag1
(g5
S'\xab\xaa\xaa*\x0898A'
p11
tp12
Rp13
ag1
(g5
S'\xab\xaa\xaaj(\x908A'
p14
tp15
Rp16
ag1
(g5
S'\x00\x00\x00@1\x049A'
p17
tp18
Rp19
a.(lp0
I0
aI1
aI2
aI3
a.