(lp0
F371681.0
aF399220.0
aF402021.0
aF443715.0
aF448408.0
aF446325.0
aF451398.0
aF448311.0
aF457628.0
aF467200.0
aF466547.0
aF467985.0
aF469470.0
aF460914.0
aF464290.0
aF468522.0
aF503416.0
aF488647.0
aF491232.0
aF491928.0
aF501422.0
aF507543.0
aF487280.0
aF530186.0
aF490744.0
aF503082.0
aF511525.0
aF504400.0
aF503813.0
aF503671.0
aF500953.0
aF512175.0
aF513923.0
aF509798.0
aF512069.0
aF517195.0
aF501008.0
aF496491.0
aF509165.0
aF527169.0
aF514299.0
aF508471.0
aF509965.0
aF512637.0
aF526005.0
aF527946.0
aF515855.0
aF528849.0
aF528353.0
aF528760.0
aF520820.0
aF529433.0
aF523922.0
aF519454.0
aF529372.0
aF519746.0
aF519264.0
aF522686.0
aF524214.0
aF525093.0
aF523592.0
aF521794.0
aF523599.0
aF523442.0
aF525867.0
aF520586.0
aF521568.0
aF544515.0
aF539799.0
aF525663.0
aF538281.0
aF540623.0
aF531675.0
aF524290.0
aF548181.0
aF529718.0
aF534571.0
aF521602.0
aF524906.0
aF523187.0
aF538368.0
aF551244.0
aF547177.0
aF530018.0
aF557476.0
aF545716.0
aF547157.0
aF545712.0
aF539612.0
aF553472.0
aF554822.0
aF556662.0
aF550244.0
aF557140.0
aF542495.0
aF552941.0
aF554195.0
aF549493.0
aF552747.0
aF557366.0
aF542500.0
a.(lp0
(i__main__
Individual
p1
(dp2
S'genome'
p3
(lp4
I193
aI40
aI93
asS'fitness'
p5
F371681.0
sba(i__main__
Individual
p6
(dp7
g3
(lp8
I249
aI40
aI93
asg5
F399220.0
sba(i__main__
Individual
p9
(dp10
g3
(lp11
I249
aI40
aI93
asg5
F402021.0
sba(i__main__
Individual
p12
(dp13
g3
(lp14
I249
aI62
aI93
asg5
F443715.0
sba(i__main__
Individual
p15
(dp16
g3
(lp17
I249
aI62
aI93
asg5
F448408.0
sba(i__main__
Individual
p18
(dp19
g3
(lp20
I249
aI62
aI93
asg5
F446325.0
sba(i__main__
Individual
p21
(dp22
g3
(lp23
I249
aI65
aI104
asg5
F451398.0
sba(i__main__
Individual
p24
(dp25
g3
(lp26
I249
aI62
aI93
asg5
F448311.0
sba(i__main__
Individual
p27
(dp28
g3
(lp29
I249
aI62
aI84
asg5
F457628.0
sba(i__main__
Individual
p30
(dp31
g3
(lp32
I249
aI62
aI84
asg5
F467200.0
sba(i__main__
Individual
p33
(dp34
g3
(lp35
I249
aI62
aI84
asg5
F466547.0
sba(i__main__
Individual
p36
(dp37
g3
(lp38
I255
aI72
aI118
asg5
F467985.0
sba(i__main__
Individual
p39
(dp40
g3
(lp41
I255
aI72
aI118
asg5
F469470.0
sba(i__main__
Individual
p42
(dp43
g3
(lp44
I255
aI72
aI118
asg5
F460914.0
sba(i__main__
Individual
p45
(dp46
g3
(lp47
I255
aI72
aI118
asg5
F464290.0
sba(i__main__
Individual
p48
(dp49
g3
(lp50
I255
aI72
aI118
asg5
F468522.0
sba(i__main__
Individual
p51
(dp52
g3
(lp53
I255
aI72
aI111
asg5
F503416.0
sba(i__main__
Individual
p54
(dp55
g3
(lp56
I255
aI72
aI111
asg5
F488647.0
sba(i__main__
Individual
p57
(dp58
g3
(lp59
I255
aI72
aI120
asg5
F491232.0
sba(i__main__
Individual
p60
(dp61
g3
(lp62
I255
aI72
aI120
asg5
F491928.0
sba(i__main__
Individual
p63
(dp64
g3
(lp65
I255
aI72
aI120
asg5
F501422.0
sba(i__main__
Individual
p66
(dp67
g3
(lp68
I255
aI72
aI120
asg5
F507543.0
sba(i__main__
Individual
p69
(dp70
g3
(lp71
I255
aI72
aI120
asg5
F487280.0
sba(i__main__
Individual
p72
(dp73
g3
(lp74
I255
aI72
aI120
asg5
F530186.0
sba(i__main__
Individual
p75
(dp76
g3
(lp77
I255
aI72
aI120
asg5
F490744.0
sba(i__main__
Individual
p78
(dp79
g3
(lp80
I254
aI81
aI120
asg5
F503082.0
sba(i__main__
Individual
p81
(dp82
g3
(lp83
I254
aI81
aI120
asg5
F511525.0
sba(i__main__
Individual
p84
(dp85
g3
(lp86
I255
aI72
aI120
asg5
F504400.0
sba(i__main__
Individual
p87
(dp88
g3
(lp89
I255
aI72
aI120
asg5
F503813.0
sba(i__main__
Individual
p90
(dp91
g3
(lp92
I255
aI72
aI120
asg5
F503671.0
sba(i__main__
Individual
p93
(dp94
g3
(lp95
I255
aI72
aI120
asg5
F500953.0
sba(i__main__
Individual
p96
(dp97
g3
(lp98
I255
aI72
aI120
asg5
F512175.0
sba(i__main__
Individual
p99
(dp100
g3
(lp101
I255
aI72
aI120
asg5
F513923.0
sba(i__main__
Individual
p102
(dp103
g3
(lp104
I255
aI72
aI120
asg5
F509798.0
sba(i__main__
Individual
p105
(dp106
g3
(lp107
I255
aI84
aI120
asg5
F512069.0
sba(i__main__
Individual
p108
(dp109
g3
(lp110
I255
aI75
aI120
asg5
F517195.0
sba(i__main__
Individual
p111
(dp112
g3
(lp113
I255
aI75
aI120
asg5
F501008.0
sba(i__main__
Individual
p114
(dp115
g3
(lp116
I255
aI75
aI120
asg5
F496491.0
sba(i__main__
Individual
p117
(dp118
g3
(lp119
I255
aI75
aI120
asg5
F509165.0
sba(i__main__
Individual
p120
(dp121
g3
(lp122
I255
aI75
aI120
asg5
F527169.0
sba(i__main__
Individual
p123
(dp124
g3
(lp125
I255
aI75
aI120
asg5
F514299.0
sba(i__main__
Individual
p126
(dp127
g3
(lp128
I255
aI75
aI120
asg5
F508471.0
sba(i__main__
Individual
p129
(dp130
g3
(lp131
I255
aI75
aI120
asg5
F509965.0
sba(i__main__
Individual
p132
(dp133
g3
(lp134
I255
aI75
aI122
asg5
F512637.0
sba(i__main__
Individual
p135
(dp136
g3
(lp137
I255
aI75
aI122
asg5
F526005.0
sba(i__main__
Individual
p138
(dp139
g3
(lp140
I255
aI75
aI122
asg5
F527946.0
sba(i__main__
Individual
p141
(dp142
g3
(lp143
I255
aI75
aI122
asg5
F515855.0
sba(i__main__
Individual
p144
(dp145
g3
(lp146
I255
aI75
aI122
asg5
F528849.0
sba(i__main__
Individual
p147
(dp148
g3
(lp149
I255
aI75
aI122
asg5
F528353.0
sba(i__main__
Individual
p150
(dp151
g3
(lp152
I255
aI75
aI122
asg5
F528760.0
sba(i__main__
Individual
p153
(dp154
g3
(lp155
I255
aI75
aI122
asg5
F520820.0
sba(i__main__
Individual
p156
(dp157
g3
(lp158
I255
aI75
aI122
asg5
F529433.0
sba(i__main__
Individual
p159
(dp160
g3
(lp161
I255
aI75
aI122
asg5
F523922.0
sba(i__main__
Individual
p162
(dp163
g3
(lp164
I255
aI75
aI122
asg5
F519454.0
sba(i__main__
Individual
p165
(dp166
g3
(lp167
I255
aI75
aI122
asg5
F529372.0
sba(i__main__
Individual
p168
(dp169
g3
(lp170
I255
aI75
aI122
asg5
F519746.0
sba(i__main__
Individual
p171
(dp172
g3
(lp173
I255
aI75
aI122
asg5
F519264.0
sba(i__main__
Individual
p174
(dp175
g3
(lp176
I255
aI75
aI122
asg5
F522686.0
sba(i__main__
Individual
p177
(dp178
g3
(lp179
I255
aI75
aI122
asg5
F524214.0
sba(i__main__
Individual
p180
(dp181
g3
(lp182
I255
aI75
aI122
asg5
F525093.0
sba(i__main__
Individual
p183
(dp184
g3
(lp185
I255
aI75
aI122
asg5
F523592.0
sba(i__main__
Individual
p186
(dp187
g3
(lp188
I255
aI75
aI122
asg5
F521794.0
sba(i__main__
Individual
p189
(dp190
g3
(lp191
I255
aI75
aI122
asg5
F523599.0
sba(i__main__
Individual
p192
(dp193
g3
(lp194
I255
aI75
aI122
asg5
F523442.0
sba(i__main__
Individual
p195
(dp196
g3
(lp197
I255
aI75
aI122
asg5
F525867.0
sba(i__main__
Individual
p198
(dp199
g3
(lp200
I255
aI75
aI122
asg5
F520586.0
sba(i__main__
Individual
p201
(dp202
g3
(lp203
I255
aI75
aI122
asg5
F521568.0
sba(i__main__
Individual
p204
(dp205
g3
(lp206
I255
aI75
aI122
asg5
F544515.0
sba(i__main__
Individual
p207
(dp208
g3
(lp209
I255
aI75
aI122
asg5
F539799.0
sba(i__main__
Individual
p210
(dp211
g3
(lp212
I255
aI75
aI122
asg5
F525663.0
sba(i__main__
Individual
p213
(dp214
g3
(lp215
I255
aI75
aI122
asg5
F538281.0
sba(i__main__
Individual
p216
(dp217
g3
(lp218
I255
aI75
aI122
asg5
F540623.0
sba(i__main__
Individual
p219
(dp220
g3
(lp221
I255
aI75
aI122
asg5
F531675.0
sba(i__main__
Individual
p222
(dp223
g3
(lp224
I255
aI75
aI122
asg5
F524290.0
sba(i__main__
Individual
p225
(dp226
g3
(lp227
I255
aI75
aI122
asg5
F548181.0
sba(i__main__
Individual
p228
(dp229
g3
(lp230
I255
aI75
aI122
asg5
F529718.0
sba(i__main__
Individual
p231
(dp232
g3
(lp233
I255
aI75
aI122
asg5
F534571.0
sba(i__main__
Individual
p234
(dp235
g3
(lp236
I255
aI75
aI122
asg5
F521602.0
sba(i__main__
Individual
p237
(dp238
g3
(lp239
I255
aI75
aI122
asg5
F524906.0
sba(i__main__
Individual
p240
(dp241
g3
(lp242
I255
aI75
aI122
asg5
F523187.0
sba(i__main__
Individual
p243
(dp244
g3
(lp245
I255
aI75
aI122
asg5
F538368.0
sba(i__main__
Individual
p246
(dp247
g3
(lp248
I255
aI75
aI122
asg5
F551244.0
sba(i__main__
Individual
p249
(dp250
g3
(lp251
I255
aI75
aI122
asg5
F547177.0
sba(i__main__
Individual
p252
(dp253
g3
(lp254
I255
aI75
aI122
asg5
F530018.0
sba(i__main__
Individual
p255
(dp256
g3
(lp257
I255
aI75
aI122
asg5
F557476.0
sba(i__main__
Individual
p258
(dp259
g3
(lp260
I255
aI75
aI122
asg5
F545716.0
sba(i__main__
Individual
p261
(dp262
g3
(lp263
I255
aI75
aI122
asg5
F547157.0
sba(i__main__
Individual
p264
(dp265
g3
(lp266
I255
aI75
aI122
asg5
F545712.0
sba(i__main__
Individual
p267
(dp268
g3
(lp269
I255
aI75
aI122
asg5
F539612.0
sba(i__main__
Individual
p270
(dp271
g3
(lp272
I255
aI75
aI122
asg5
F553472.0
sba(i__main__
Individual
p273
(dp274
g3
(lp275
I255
aI75
aI122
asg5
F554822.0
sba(i__main__
Individual
p276
(dp277
g3
(lp278
I255
aI75
aI122
asg5
F556662.0
sba(i__main__
Individual
p279
(dp280
g3
(lp281
I255
aI75
aI122
asg5
F550244.0
sba(i__main__
Individual
p282
(dp283
g3
(lp284
I255
aI75
aI122
asg5
F557140.0
sba(i__main__
Individual
p285
(dp286
g3
(lp287
I255
aI75
aI121
asg5
F542495.0
sba(i__main__
Individual
p288
(dp289
g3
(lp290
I255
aI75
aI122
asg5
F552941.0
sba(i__main__
Individual
p291
(dp292
g3
(lp293
I255
aI75
aI122
asg5
F554195.0
sba(i__main__
Individual
p294
(dp295
g3
(lp296
I255
aI75
aI122
asg5
F549493.0
sba(i__main__
Individual
p297
(dp298
g3
(lp299
I255
aI75
aI122
asg5
F552747.0
sba(i__main__
Individual
p300
(dp301
g3
(lp302
I255
aI75
aI122
asg5
F557366.0
sba(i__main__
Individual
p303
(dp304
g3
(lp305
I255
aI75
aI122
asg5
F542500.0
sba.