(lp0
F55307.0
aF56434.0
aF55909.0
a.(lp0
(i__main__
Individual
p1
(dp2
S'genome'
p3
(lp4
I100
aI50
aI240
asS'fitness'
p5
F55307.0
sba(i__main__
Individual
p6
(dp7
g3
(lp8
I187
aI50
aI240
asg5
F56434.0
sba(i__main__
Individual
p9
(dp10
g3
(lp11
I169
aI50
aI240
asg5
F55909.0
sba.