(lp0
F1771983.0
aF1947189.0
aF1851480.0
a.(lp0
(i__main__
Individual
p1
(dp2
S'genome'
p3
(lp4
I149
aI34
aI172
asS'fitness'
p5
F1771983.0
sba(i__main__
Individual
p6
(dp7
g3
(lp8
I191
aI139
aI209
asg5
F1947189.0
sba(i__main__
Individual
p9
(dp10
g3
(lp11
I159
aI137
aI178
asg5
F1851480.0
sba.