(lp0
(lp1
F1528218.0
aF1527771.0
aF1528243.0
aF1525053.0
aF1527936.0
aF1526919.0
aF1526729.0
aF1527504.0
aF1522535.0
aF1528058.0
aa(lp2
F1527776.0
aF1527504.0
aF1527175.0
aF1528557.0
aF1527231.0
aF1527422.0
aF1527238.0
aF1527388.0
aF1527634.0
aF1527913.0
aa(lp3
F1527801.0
aF1527509.0
aF1527498.0
aF1527296.0
aF1526407.0
aF1527237.0
aF1527705.0
aF1527909.0
aF1528012.0
aF1527780.0
aa(lp4
F1528219.0
aF1528134.0
aF1527700.0
aF1527632.0
aF1527290.0
aF1527890.0
aF1527093.0
aF1528067.0
aF1527341.0
aF1527861.0
aa(lp5
F1527934.0
aF1527931.0
aF1527688.0
aF1528216.0
aF1527729.0
aF1528223.0
aF1526838.0
aF1526596.0
aF1528023.0
aF1527921.0
aa(lp6
F1528187.0
aF1527256.0
aF1527813.0
aF1528686.0
aF1527684.0
aF1527805.0
aF1527814.0
aF1527516.0
aF1527235.0
aF1527996.0
aa(lp7
F1528072.0
aF1528473.0
aF1527832.0
aF1528016.0
aF1527777.0
aF1527842.0
aF1528301.0
aF1527955.0
aF1527700.0
aF1527766.0
aa(lp8
F1528313.0
aF1528109.0
aF1527678.0
aF1527331.0
aF1528279.0
aF1527835.0
aF1527867.0
aF1528329.0
aF1527380.0
aF1527685.0
aa(lp9
F1528497.0
aF1528361.0
aF1527874.0
aF1527486.0
aF1527656.0
aF1527603.0
aF1528618.0
aF1528007.0
aF1527577.0
aF1528038.0
aa(lp10
F1528166.0
aF1527692.0
aF1526913.0
aF1527901.0
aF1528285.0
aF1527772.0
aF1527676.0
aF1528344.0
aF1527878.0
aF1523972.0
aa.(lp0
cnumpy.core.multiarray
scalar
p1
(cnumpy
dtype
p2
(S'f8'
p3
I0
I1
tp4
Rp5
(I3
S'<'
p6
NNNI-1
I-1
I0
tp7
bS'\x00\x00\x00\x00g;7A'
p8
tp9
Rp10
ag1
(g5
S'\x00\x00\x00\x00\x87M7A'
p11
tp12
Rp13
ag1
(g5
S'\x00\x00\x00\x00\x87J7A'
p14
tp15
Rp16
ag1
(g5
S'\x00\x00\x00\x005M7A'
p17
tp18
Rp19
ag1
(g5
S'\x00\x00\x00\x00DK7A'
p20
tp21
Rp22
ag1
(g5
S'\x00\x00\x00\x00\xc3M7A'
p23
tp24
Rp25
ag1
(g5
S'\x00\x00\x00\x00\x94O7A'
p26
tp27
Rp28
ag1
(g5
S'\x00\x00\x00\x00#N7A'
p29
tp30
Rp31
ag1
(g5
S'\x00\x00\x00\x00\xbeN7A'
p32
tp33
Rp34
ag1
(g5
S'\x00\x00\x00\x00\x04A7A'
p35
tp36
Rp37
a.(lp0
cnumpy.core.multiarray
scalar
p1
(cnumpy
dtype
p2
(S'f8'
p3
I0
I1
tp4
Rp5
(I3
S'<'
p6
NNNI-1
I-1
I0
tp7
bS'\x00\x00\x00\x80\xf8K7A'
p8
tp9
Rp10
ag1
(g5
S'\x00\x00\x00\x80\xebM7A'
p11
tp12
Rp13
ag1
(g5
S'\x00\x00\x00\x802N7A'
p14
tp15
Rp16
ag1
(g5
S'\x00\x00\x00\xc0uN7A'
p17
tp18
Rp19
ag1
(g5
S'\x00\x00\x00@\x92O7A'
p20
tp21
Rp22
ag1
(g5
S'\x00\x00\x00\x00\x06O7A'
p23
tp24
Rp25
ag1
(g5
S'\x00\x00\x00\xc0\xeeO7A'
p26
tp27
Rp28
ag1
(g5
S'\x00\x00\x00\xc0\x7fO7A'
p29
tp30
Rp31
ag1
(g5
S'\x00\x00\x00@@O7A'
p32
tp33
Rp34
ag1
(g5
S'\x00\x00\x00\x00\x80O7A'
p35
tp36
Rp37
a.(lp0
cnumpy.core.multiarray
scalar
p1
(cnumpy
dtype
p2
(S'f8'
p3
I0
I1
tp4
Rp5
(I3
S'<'
p6
NNNI-1
I-1
I0
tp7
bS'\x00\x00\x00\x80UO7A'
p8
tp9
Rp10
ag1
(g5
S'\x00\x00\x00\x00\xa7N7A'
p11
tp12
Rp13
ag1
(g5
S'\x00\x00\x00\x007O7A'
p14
tp15
Rp16
ag1
(g5
S'\x00\x00\x00\x80\xe4O7A'
p17
tp18
Rp19
ag1
(g5
S'\x00\x00\x00\x00vP7A'
p20
tp21
Rp22
ag1
(g5
S'\x00\x00\x00\x00\x01P7A'
p23
tp24
Rp25
ag1
(g5
S'\x00\x00\x00\x80ZP7A'
p26
tp27
Rp28
ag1
(g5
S'\x00\x00\x00\x00+P7A'
p29
tp30
Rp31
ag1
(g5
S'\x00\x00\x00\x80\x84P7A'
p32
tp33
Rp34
ag1
(g5
S'\x00\x00\x00\x00\x11P7A'
p35
tp36
Rp37
a.(lp0
cnumpy.core.multiarray
scalar
p1
(cnumpy
dtype
p2
(S'f8'
p3
I0
I1
tp4
Rp5
(I3
S'<'
p6
NNNI-1
I-1
I0
tp7
bS'\x00\x00\x00\x80\xdbP7A'
p8
tp9
Rp10
ag1
(g5
S'\x00\x00\x00\x80\xbcO7A'
p11
tp12
Rp13
ag1
(g5
S'\x00\x00\x00\xc0\xf3O7A'
p14
tp15
Rp16
ag1
(g5
S'\x00\x00\x00\xc0\xd6P7A'
p17
tp18
Rp19
ag1
(g5
S'\x00\x00\x00\xc0\xc0P7A'
p20
tp21
Rp22
ag1
(g5
S'\x00\x00\x00\x80\x8eP7A'
p23
tp24
Rp25
ag1
(g5
S'\x00\x00\x00\x00\xfaP7A'
p26
tp27
Rp28
ag1
(g5
S'\x00\x00\x00\x80\xacQ7A'
p29
tp30
Rp31
ag1
(g5
S'\x00\x00\x00@\xd8Q7A'
p32
tp33
Rp34
ag1
(g5
S'\x00\x00\x00\xc0#Q7A'
p35
tp36
Rp37
a.(lp0
cnumpy.core.multiarray
scalar
p1
(cnumpy
dtype
p2
(S'f8'
p3
I0
I1
tp4
Rp5
(I3
S'<'
p6
NNNI-1
I-1
I0
tp7
bS'\x00\x00\x00\x00\xb3Q7A'
p8
tp9
Rp10
ag1
(g5
S'\x00\x00\x00\x00\xedR7A'
p11
tp12
Rp13
ag1
(g5
S'\x00\x00\x00\x00\xccP7A'
p14
tp15
Rp16
ag1
(g5
S'\x00\x00\x00\x00\x9bQ7A'
p17
tp18
Rp19
ag1
(g5
S'\x00\x00\x00\x00\x9fQ7A'
p20
tp21
Rp22
ag1
(g5
S'\x00\x00\x00\x00nS7A'
p23
tp24
Rp25
ag1
(g5
S'\x00\x00\x00\x00\x99R7A'
p26
tp27
Rp28
ag1
(g5
S'\x00\x00\x00\x00\tR7A'
p29
tp30
Rp31
ag1
(g5
S'\x00\x00\x00\x00*S7A'
p32
tp33
Rp34
ag1
(g5
S'\x00\x00\x00\x00\x18R7A'
p35
tp36
Rp37
a.(lp0
cnumpy.core.multiarray
scalar
p1
(cnumpy
dtype
p2
(S'f8'
p3
I0
I1
tp4
Rp5
(I3
S'<'
p6
NNNI-1
I-1
I0
tp7
bS'\xe1[\x98\xed\xac\xde\x9a@'
p8
tp9
Rp10
ag1
(g5
S'\x11\xda\xb1*\xd5\xd1x@'
p11
tp12
Rp13
ag1
(g5
S'H\xea\x13?\xcd\x8d{@'
p14
tp15
Rp16
ag1
(g5
S'\xd4h\x80\xe8\x9b\xb3v@'
p17
tp18
Rp19
ag1
(g5
S'V\x1fLy\x17m\x80@'
p20
tp21
Rp22
ag1
(g5
S'\xa4\x01$\xa7\x95\xa3y@'
p23
tp24
Rp25
ag1
(g5
S'\xf3$\xbf\x8e\xbd\xa4m@'
p26
tp27
Rp28
ag1
(g5
S'bw\x85h\x9a\xf2u@'
p29
tp30
Rp31
ag1
(g5
S'\xec\x88\xae\x03H\x1bx@'
p32
tp33
Rp34
ag1
(g5
S';\x13\xb6\xda\xd1!\x93@'
p35
tp36
Rp37
a.(lp0
cnumpy.core.multiarray
scalar
p1
(cnumpy
dtype
p2
(S'f8'
p3
I0
I1
tp4
Rp5
(I3
S'<'
p6
NNNI-1
I-1
I0
tp7
bS'\x9a\x99\x99\x99pL7A'
p8
tp9
Rp10
ag1
(g5
S'\xcd\xcc\xcc\xcc\x1fO7A'
p11
tp12
Rp13
ag1
(g5
S'ffff\xdbN7A'
p14
tp15
Rp16
ag1
(g5
S'333\xb3\xaaO7A'
p17
tp18
Rp19
ag1
(g5
S'fff\xe6\x9dO7A'
p20
tp21
Rp22
ag1
(g5
S'3333\xf7O7A'
p23
tp24
Rp25
ag1
(g5
S'ffff\xa5P7A'
p26
tp27
Rp28
ag1
(g5
S'\x9a\x99\x99\x99HP7A'
p29
tp30
Rp31
ag1
(g5
S'333\xb3\xa3P7A'
p32
tp33
Rp34
ag1
(g5
S'fff\xe6\xa3N7A'
p35
tp36
Rp37
a.(lp0
I0
aI1
aI2
aI3
aI4
aI5
aI6
aI7
aI8
aI9
a.