(lp0
F323043.0
aF324201.0
aF329240.0
aF324410.0
aF329583.0
aF330346.0
aF326704.0
aF326671.0
aF329072.0
aF327866.0
aF330354.0
aF326408.0
aF331934.0
aF330505.0
aF330464.0
aF346383.0
aF325966.0
aF341661.0
aF330448.0
aF332221.0
aF337463.0
aF328764.0
aF330280.0
aF329921.0
aF328689.0
aF326685.0
aF329948.0
aF329679.0
aF333297.0
aF329998.0
aF330297.0
aF332230.0
aF346082.0
aF333338.0
aF343424.0
aF334313.0
aF334817.0
aF333690.0
aF333600.0
aF333900.0
aF331649.0
aF332657.0
aF337039.0
aF334255.0
aF341683.0
aF335019.0
aF331742.0
aF329240.0
aF336318.0
aF328035.0
aF330280.0
aF330684.0
a.(lp0
(i__main__
Individual
p1
(dp2
S'genome'
p3
(lp4
I180
aI63
aI74
aI18
aI21
aI22
aI22
aI7
aI81
aI176
aI56
aI176
aI85
aI46
aI38
asS'fitness'
p5
F323043.0
sba(i__main__
Individual
p6
(dp7
g3
(lp8
I119
aI211
aI36
aI38
aI3
aI245
aI28
aI255
aI211
aI217
aI70
aI116
aI171
aI129
aI109
asg5
F324201.0
sba(i__main__
Individual
p9
(dp10
g3
(lp11
I119
aI211
aI0
aI38
aI3
aI245
aI28
aI255
aI199
aI208
aI68
aI116
aI171
aI129
aI55
asg5
F329240.0
sba(i__main__
Individual
p12
(dp13
g3
(lp14
I119
aI211
aI36
aI38
aI3
aI245
aI28
aI255
aI199
aI208
aI28
aI116
aI171
aI44
aI109
asg5
F324410.0
sba(i__main__
Individual
p15
(dp16
g3
(lp17
I180
aI63
aI125
aI18
aI21
aI28
aI22
aI7
aI81
aI176
aI56
aI176
aI85
aI46
aI38
asg5
F329583.0
sba(i__main__
Individual
p18
(dp19
g3
(lp20
I119
aI211
aI36
aI38
aI3
aI245
aI28
aI255
aI199
aI208
aI52
aI116
aI171
aI129
aI109
asg5
F330346.0
sba(i__main__
Individual
p21
(dp22
g3
(lp23
I180
aI95
aI74
aI18
aI21
aI22
aI22
aI7
aI81
aI176
aI56
aI176
aI85
aI46
aI38
asg5
F326704.0
sba(i__main__
Individual
p24
(dp25
g3
(lp26
I180
aI63
aI74
aI18
aI21
aI22
aI22
aI7
aI81
aI176
aI56
aI176
aI85
aI46
aI38
asg5
F326671.0
sba(i__main__
Individual
p27
(dp28
g3
(lp29
I119
aI211
aI36
aI38
aI3
aI245
aI28
aI255
aI199
aI208
aI28
aI116
aI171
aI89
aI109
asg5
F329072.0
sba(i__main__
Individual
p30
(dp31
g3
(lp32
I180
aI63
aI74
aI18
aI21
aI22
aI22
aI7
aI81
aI176
aI56
aI176
aI85
aI46
aI38
asg5
F327866.0
sba(i__main__
Individual
p33
(dp34
g3
(lp35
I210
aI63
aI74
aI18
aI21
aI22
aI43
aI7
aI81
aI176
aI56
aI176
aI85
aI46
aI38
asg5
F330354.0
sba(i__main__
Individual
p36
(dp37
g3
(lp38
I158
aI63
aI74
aI18
aI21
aI41
aI0
aI7
aI81
aI176
aI56
aI176
aI131
aI46
aI38
asg5
F326408.0
sba(i__main__
Individual
p39
(dp40
g3
(lp41
I119
aI211
aI36
aI38
aI3
aI178
aI28
aI255
aI199
aI208
aI40
aI116
aI171
aI116
aI109
asg5
F331934.0
sba(i__main__
Individual
p42
(dp43
g3
(lp44
I180
aI63
aI92
aI18
aI21
aI22
aI22
aI7
aI71
aI176
aI56
aI176
aI85
aI46
aI38
asg5
F330505.0
sba(i__main__
Individual
p45
(dp46
g3
(lp47
I119
aI145
aI36
aI38
aI3
aI245
aI28
aI188
aI199
aI208
aI28
aI116
aI171
aI103
aI109
asg5
F330464.0
sba(i__main__
Individual
p48
(dp49
g3
(lp50
I180
aI63
aI106
aI11
aI21
aI22
aI45
aI7
aI81
aI176
aI56
aI108
aI85
aI46
aI38
asg5
F346383.0
sba(i__main__
Individual
p51
(dp52
g3
(lp53
I180
aI63
aI74
aI18
aI21
aI22
aI22
aI7
aI81
aI176
aI56
aI176
aI85
aI46
aI38
asg5
F325966.0
sba(i__main__
Individual
p54
(dp55
g3
(lp56
I180
aI63
aI74
aI18
aI21
aI22
aI22
aI7
aI81
aI176
aI56
aI134
aI85
aI46
aI38
asg5
F341661.0
sba(i__main__
Individual
p57
(dp58
g3
(lp59
I180
aI63
aI74
aI18
aI21
aI22
aI22
aI7
aI157
aI176
aI56
aI176
aI85
aI46
aI38
asg5
F330448.0
sba(i__main__
Individual
p60
(dp61
g3
(lp62
I168
aI233
aI48
aI14
aI11
aI148
aI58
aI53
aI220
aI248
aI75
aI155
aI22
aI208
aI139
asg5
F332221.0
sba(i__main__
Individual
p63
(dp64
g3
(lp65
I180
aI63
aI74
aI18
aI21
aI22
aI22
aI7
aI81
aI176
aI56
aI132
aI85
aI46
aI38
asg5
F337463.0
sba(i__main__
Individual
p66
(dp67
g3
(lp68
I180
aI63
aI74
aI18
aI21
aI22
aI22
aI7
aI81
aI176
aI56
aI176
aI85
aI46
aI38
asg5
F328764.0
sba(i__main__
Individual
p69
(dp70
g3
(lp71
I180
aI63
aI137
aI18
aI21
aI22
aI22
aI7
aI81
aI176
aI56
aI176
aI85
aI23
aI38
asg5
F330280.0
sba(i__main__
Individual
p72
(dp73
g3
(lp74
I180
aI63
aI74
aI18
aI21
aI22
aI22
aI7
aI81
aI176
aI56
aI176
aI85
aI46
aI38
asg5
F329921.0
sba(i__main__
Individual
p75
(dp76
g3
(lp77
I180
aI63
aI74
aI18
aI21
aI22
aI22
aI7
aI81
aI176
aI56
aI176
aI85
aI46
aI38
asg5
F328689.0
sba(i__main__
Individual
p78
(dp79
g3
(lp80
I180
aI63
aI74
aI18
aI21
aI22
aI22
aI7
aI81
aI176
aI56
aI176
aI85
aI46
aI38
asg5
F326685.0
sba(i__main__
Individual
p81
(dp82
g3
(lp83
I180
aI63
aI74
aI18
aI21
aI22
aI22
aI7
aI81
aI176
aI56
aI176
aI85
aI46
aI38
asg5
F329948.0
sba(i__main__
Individual
p84
(dp85
g3
(lp86
I180
aI63
aI74
aI18
aI21
aI50
aI52
aI7
aI81
aI176
aI56
aI176
aI85
aI46
aI38
asg5
F329679.0
sba(i__main__
Individual
p87
(dp88
g3
(lp89
I180
aI63
aI74
aI0
aI21
aI22
aI22
aI7
aI45
aI251
aI56
aI176
aI148
aI46
aI38
asg5
F333297.0
sba(i__main__
Individual
p90
(dp91
g3
(lp92
I180
aI63
aI74
aI18
aI21
aI22
aI22
aI7
aI81
aI176
aI56
aI176
aI85
aI46
aI38
asg5
F329998.0
sba(i__main__
Individual
p93
(dp94
g3
(lp95
I180
aI63
aI74
aI18
aI21
aI22
aI22
aI7
aI81
aI176
aI56
aI176
aI85
aI46
aI38
asg5
F330297.0
sba(i__main__
Individual
p96
(dp97
g3
(lp98
I180
aI63
aI74
aI18
aI21
aI22
aI22
aI7
aI81
aI176
aI56
aI176
aI85
aI46
aI38
asg5
F332230.0
sba(i__main__
Individual
p99
(dp100
g3
(lp101
I180
aI63
aI74
aI18
aI0
aI22
aI0
aI7
aI81
aI176
aI56
aI148
aI136
aI46
aI38
asg5
F346082.0
sba(i__main__
Individual
p102
(dp103
g3
(lp104
I180
aI63
aI74
aI18
aI21
aI22
aI22
aI7
aI81
aI176
aI56
aI176
aI85
aI46
aI38
asg5
F333338.0
sba(i__main__
Individual
p105
(dp106
g3
(lp107
I255
aI63
aI74
aI33
aI21
aI22
aI22
aI28
aI81
aI176
aI56
aI176
aI85
aI46
aI38
asg5
F343424.0
sba(i__main__
Individual
p108
(dp109
g3
(lp110
I180
aI63
aI74
aI18
aI21
aI22
aI22
aI7
aI81
aI176
aI56
aI176
aI85
aI46
aI38
asg5
F334313.0
sba(i__main__
Individual
p111
(dp112
g3
(lp113
I198
aI63
aI74
aI18
aI21
aI22
aI22
aI7
aI81
aI176
aI56
aI176
aI85
aI46
aI38
asg5
F334817.0
sba(i__main__
Individual
p114
(dp115
g3
(lp116
I180
aI63
aI74
aI18
aI21
aI22
aI22
aI7
aI81
aI176
aI56
aI176
aI85
aI46
aI38
asg5
F333690.0
sba(i__main__
Individual
p117
(dp118
g3
(lp119
I180
aI63
aI74
aI18
aI21
aI22
aI22
aI7
aI81
aI176
aI56
aI176
aI85
aI46
aI38
asg5
F333600.0
sba(i__main__
Individual
p120
(dp121
g3
(lp122
I180
aI63
aI74
aI18
aI21
aI22
aI22
aI7
aI81
aI176
aI56
aI176
aI85
aI46
aI38
asg5
F333900.0
sba(i__main__
Individual
p123
(dp124
g3
(lp125
I180
aI63
aI74
aI18
aI21
aI22
aI22
aI7
aI81
aI176
aI56
aI176
aI85
aI46
aI38
asg5
F331649.0
sba(i__main__
Individual
p126
(dp127
g3
(lp128
I180
aI63
aI74
aI18
aI21
aI22
aI22
aI7
aI81
aI176
aI56
aI176
aI85
aI46
aI38
asg5
F332657.0
sba(i__main__
Individual
p129
(dp130
g3
(lp131
I253
aI63
aI74
aI18
aI21
aI22
aI22
aI7
aI81
aI176
aI56
aI176
aI85
aI46
aI76
asg5
F337039.0
sba(i__main__
Individual
p132
(dp133
g3
(lp134
I180
aI63
aI74
aI18
aI21
aI22
aI22
aI7
aI81
aI176
aI56
aI176
aI85
aI46
aI38
asg5
F334255.0
sba(i__main__
Individual
p135
(dp136
g3
(lp137
I180
aI63
aI74
aI0
aI21
aI22
aI22
aI7
aI81
aI176
aI56
aI104
aI85
aI28
aI0
asg5
F341683.0
sba(i__main__
Individual
p138
(dp139
g3
(lp140
I119
aI211
aI36
aI38
aI3
aI245
aI28
aI195
aI199
aI208
aI28
aI138
aI171
aI129
aI109
asg5
F335019.0
sba(i__main__
Individual
p141
(dp142
g3
(lp143
I180
aI63
aI74
aI18
aI21
aI22
aI22
aI7
aI81
aI176
aI56
aI176
aI85
aI46
aI38
asg5
F331742.0
sba(i__main__
Individual
p144
(dp145
g3
(lp146
I180
aI63
aI74
aI18
aI21
aI22
aI22
aI7
aI81
aI176
aI56
aI176
aI85
aI46
aI38
asg5
F329240.0
sba(i__main__
Individual
p147
(dp148
g3
(lp149
I180
aI63
aI74
aI2
aI18
aI22
aI22
aI7
aI81
aI176
aI56
aI127
aI85
aI46
aI38
asg5
F336318.0
sba(i__main__
Individual
p150
(dp151
g3
(lp152
I180
aI63
aI74
aI18
aI21
aI22
aI22
aI7
aI81
aI176
aI56
aI176
aI85
aI46
aI38
asg5
F328035.0
sba(i__main__
Individual
p153
(dp154
g3
(lp155
I209
aI63
aI74
aI18
aI0
aI22
aI22
aI44
aI81
aI176
aI56
aI176
aI85
aI46
aI38
asg5
F330280.0
sba(i__main__
Individual
p156
(dp157
g3
(lp158
I180
aI63
aI74
aI18
aI21
aI22
aI22
aI7
aI81
aI235
aI56
aI176
aI85
aI72
aI38
asg5
F330684.0
sba.